{
	global:
		_Z11genode_exiti;
		_Z13genode_atexitPFvvE;
		_Z16main_thread_utcbv;
		_Z21genode___cxa_finalizePv;
		_Z22__ldso_raise_exceptionv;
		_ZN5Timer10Connection16schedule_timeoutEN6Genode12MicrosecondsERNS1_11Time_source15Timeout_handlerE;
		_ZN5Timer10Connection18_schedule_one_shotERN6Genode7TimeoutENS1_12MicrosecondsE;
		_ZN5Timer10Connection18_schedule_periodicERN6Genode7TimeoutENS1_12MicrosecondsE;
		_ZN5Timer10Connection8_discardERN6Genode7TimeoutE;
		_ZN5Timer10Connection9curr_timeEv;
		_ZN5Timer10ConnectionC1ERN6Genode3EnvEPKc;
		_ZN5Timer10ConnectionC1ERN6Genode3EnvERNS1_10EntrypointEPKc;
		_ZN5Timer10ConnectionC2ERN6Genode3EnvEPKc;
		_ZN5Timer10ConnectionC2ERN6Genode3EnvERNS1_10EntrypointEPKc;
		_ZN6Genode10Entrypoint16_dispatch_signalERNS_6SignalE;
		_ZN6Genode10Entrypoint16schedule_suspendEPFvvES2_;
		_ZN6Genode10Entrypoint22Signal_proxy_component6signalEv;
		_ZN6Genode10Entrypoint25_process_incoming_signalsEv;
		_ZN6Genode10Entrypoint32_wait_and_dispatch_one_io_signalEb;
		_ZN6Genode10Entrypoint6manageERNS_22Signal_dispatcher_baseE;
		_ZN6Genode10Entrypoint8dissolveERNS_22Signal_dispatcher_baseE;
		_ZN6Genode10EntrypointC1ERNS_3EnvE;
		_ZN6Genode10EntrypointC1ERNS_3EnvEmPKcNS_8Affinity8LocationE;
		_ZN6Genode10EntrypointC2ERNS_3EnvEmPKcNS_8Affinity8LocationE;
		_ZN6Genode10EntrypointD1Ev;
		_ZN6Genode10EntrypointD2Ev;
		_ZN6Genode10Ipc_serverC1Ev;
		_ZN6Genode10Ipc_serverC2Ev;
		_ZN6Genode10Ipc_serverD1Ev;
		_ZN6Genode10Ipc_serverD2Ev;
		_ZN6Genode10Vm_sessionD0Ev;
		_ZN6Genode10Vm_sessionD2Ev;
		_ZN6Genode11Sliced_heap4freeEPvm;
		_ZN6Genode11Sliced_heap5allocEmPPv;
		_ZN6Genode11Sliced_heapC1ERNS_13Ram_allocatorERNS_10Region_mapE;
		_ZN6Genode11Sliced_heapC2ERNS_13Ram_allocatorERNS_10Region_mapE;
		_ZN6Genode11Sliced_heapD0Ev;
		_ZN6Genode11Sliced_heapD1Ev;
		_ZN6Genode11Sliced_heapD2Ev;
		_ZN6Genode12Address_infoC1Em;
		_ZN6Genode12Address_infoC2Em;
		_ZN6Genode12Trace_output12trace_outputEv;
		_ZN6Genode12Trace_output8_acquireEv;
		_ZN6Genode12Trace_output8_releaseEv;
		_ZN6Genode13Avl_node_base15_rotate_subtreeEPS0_bRNS0_6PolicyE;
		_ZN6Genode13Avl_node_base18_rebalance_subtreeEPS0_RNS0_6PolicyE;
		_ZN6Genode13Avl_node_base6_adoptEPS0_bRNS0_6PolicyE;
		_ZN6Genode13Avl_node_base6insertEPS0_RNS0_6PolicyE;
		_ZN6Genode13Avl_node_base6removeERNS0_6PolicyE;
		_ZN6Genode13Avl_node_baseC1Ev;
		_ZN6Genode13Avl_node_baseC2Ev;
		_ZN6Genode13Registry_base7ElementC1ERS0_Pv;
		_ZN6Genode13Registry_base7ElementC2ERS0_Pv;
		_ZN6Genode13Registry_base7ElementD1Ev;
		_ZN6Genode13Registry_base7ElementD2Ev;
		_ZN6Genode13Registry_base7_insertERNS0_7ElementE;
		_ZN6Genode13Registry_base7_removeERNS0_7ElementE;
		_ZN6Genode13Registry_base9_for_eachERNS0_15Untyped_functorE;
		_ZN6Genode13Session_state7destroyEv;
		_ZN6Genode13Session_stateC1ERNS_7ServiceERNS_8Id_spaceINS_6Parent6ClientEEENS6_2IdERKNS_13Session_labelERKNS_6StringILm256EEERKNS_8AffinityE;
		_ZN6Genode13Session_stateC2ERNS_7ServiceERNS_8Id_spaceINS_6Parent6ClientEEENS6_2IdERKNS_13Session_labelERKNS_6StringILm256EEERKNS_8AffinityE;
		_ZN6Genode13Shared_objectC1ERNS_3EnvERNS_9AllocatorEPKcNS0_4BindENS0_4KeepE;
		_ZN6Genode13Shared_objectC2ERNS_3EnvERNS_9AllocatorEPKcNS0_4BindENS0_4KeepE;
		_ZN6Genode13Shared_objectD1Ev;
		_ZN6Genode13Shared_objectD2Ev;
		_ZN6Genode13sleep_foreverEv;
		_ZN6Genode14Capability_map6insertEmm;
		_ZN6Genode14Dynamic_linker23_for_each_loaded_objectERNS_3EnvERKNS0_11For_each_fnE;
		_ZN6Genode14Dynamic_linker4keepERNS_3EnvEPKc;
		_ZN6Genode14Dynamic_linker8_respawnERNS_3EnvEPKcS4_;
		_ZN6Genode14Rpc_entrypoint13_free_rpc_capERNS_10Pd_sessionENS_17Native_capabilityE;
		_ZN6Genode14Rpc_entrypoint14_alloc_rpc_capERNS_10Pd_sessionENS_17Native_capabilityEm;
		_ZN6Genode14Rpc_entrypoint17_activation_entryEv;
		_ZN6Genode14Rpc_entrypoint17reply_signal_infoENS_17Native_capabilityEmm;
		_ZN6Genode14Rpc_entrypoint22_block_until_cap_validEv;
		_ZN6Genode14Rpc_entrypoint5entryEv;
		_ZN6Genode14Rpc_entrypoint7_manageEPNS_15Rpc_object_baseE;
		_ZN6Genode14Rpc_entrypoint8activateEv;
		_ZN6Genode14Rpc_entrypoint9_dissolveEPNS_15Rpc_object_baseE;
		_ZN6Genode14Rpc_entrypointC1EPNS_10Pd_sessionEmPKcbNS_8Affinity8LocationE;
		_ZN6Genode14Rpc_entrypointC2EPNS_10Pd_sessionEmPKcbNS_8Affinity8LocationE;
		_ZN6Genode14Rpc_entrypointD0Ev;
		_ZN6Genode14Rpc_entrypointD1Ev;
		_ZN6Genode14Rpc_entrypointD2Ev;
		_ZN6Genode14Signal_contextD0Ev;
		_ZN6Genode14Signal_contextD1Ev;
		_ZN6Genode14Signal_contextD2Ev;
		_ZN6Genode14cache_coherentEmm;
		_ZN6Genode14env_deprecatedEv;
		_ZN6Genode14ipc_reply_waitERKNS_17Native_capabilityENS_18Rpc_exception_codeERNS_11Msgbuf_baseES5_;
		_ZN6Genode15Alarm_scheduler12_setup_alarmERNS_5AlarmEmm;
		_ZN6Genode15Alarm_scheduler13next_deadlineEPm;
		_ZN6Genode15Alarm_scheduler17schedule_absoluteEPNS_5AlarmEy;
		_ZN6Genode15Alarm_scheduler18_get_pending_alarmEv;
		_ZN6Genode15Alarm_scheduler23_unsynchronized_dequeueEPNS_5AlarmE;
		_ZN6Genode15Alarm_scheduler23_unsynchronized_enqueueEPNS_5AlarmE;
		_ZN6Genode15Alarm_scheduler6handleEy;
		_ZN6Genode15Alarm_scheduler7discardEPNS_5AlarmE;
		_ZN6Genode15Alarm_scheduler8scheduleEPNS_5AlarmEm;
		_ZN6Genode15Alarm_schedulerD1Ev;
		_ZN6Genode15Alarm_schedulerD2Ev;
		_ZN6Genode15Cancelable_lock4lockEv;
		_ZN6Genode15Cancelable_lock6unlockEv;
		_ZN6Genode15Cancelable_lock9Applicant7wake_upEv;
		_ZN6Genode15Cancelable_lockC1ENS0_5StateE;
		_ZN6Genode15Cancelable_lockC2ENS0_5StateE;
		_ZN6Genode15Connection_baseC1Ev;
		_ZN6Genode15Connection_baseC2Ev;
		_ZN6Genode15Signal_receiver12local_submitENS_6Signal4DataE;
		_ZN6Genode15Signal_receiver14pending_signalEv;
		_ZN6Genode15Signal_receiver15wait_for_signalEv;
		_ZN6Genode15Signal_receiver16block_for_signalEv;
		_ZN6Genode15Signal_receiver6manageEPNS_14Signal_contextE;
		_ZN6Genode15Signal_receiver8dissolveEPNS_14Signal_contextE;
		_ZN6Genode15Signal_receiverC1Ev;
		_ZN6Genode15Signal_receiverC2Ev;
		_ZN6Genode15Signal_receiverD1Ev;
		_ZN6Genode15Signal_receiverD2Ev;
		_ZN6Genode16raw_write_stringEPKc;
		_ZN6Genode17Native_capability4_decEv;
		_ZN6Genode17Native_capability4_incEv;
		_ZN6Genode17Native_capabilityC1Ev;
		_ZN6Genode17Native_capabilityC2Ev;
		_ZN6Genode17Region_map_client13fault_handlerENS_10CapabilityINS_14Signal_contextEEE;
		_ZN6Genode17Region_map_client5stateEv;
		_ZN6Genode17Region_map_client6attachENS_10CapabilityINS_9DataspaceEEEmlbNS_10Region_map10Local_addrEbb;
		_ZN6Genode17Region_map_client6detachENS_10Region_map10Local_addrE;
		_ZN6Genode17Region_map_client9dataspaceEv;
		_ZN6Genode17Region_map_clientC1ENS_10CapabilityINS_10Region_mapEEE;
		_ZN6Genode17Region_map_clientC2ENS_10CapabilityINS_10Region_mapEEE;
		_ZN6Genode17Rm_session_client6createEm;
		_ZN6Genode17Rm_session_client7destroyENS_10CapabilityINS_10Region_mapEEE;
		_ZN6Genode17Rm_session_clientC1ENS_10CapabilityINS_10Rm_sessionEEE;
		_ZN6Genode17Rm_session_clientC2ENS_10CapabilityINS_10Rm_sessionEEE;
		_ZN6Genode17Vm_session_client11create_vcpuERNS_9AllocatorERNS_3EnvERNS_15Vm_handler_baseE;
		_ZN6Genode17Vm_session_client3runENS_10Vm_session7Vcpu_idE;
		_ZN6Genode17Vm_session_client5pauseENS_10Vm_session7Vcpu_idE;
		_ZN6Genode17Vm_session_client9cpu_stateENS_10Vm_session7Vcpu_idE;
		_ZN6Genode18Allocator_avl_base10_add_blockEPNS0_5BlockEmmb;
		_ZN6Genode18Allocator_avl_base10alloc_addrEmm;
		_ZN6Genode18Allocator_avl_base12remove_rangeEmm;
		_ZN6Genode18Allocator_avl_base13alloc_alignedEmPPvimm;
		_ZN6Genode18Allocator_avl_base14_destroy_blockEPNS0_5BlockE;
		_ZN6Genode18Allocator_avl_base14any_block_addrEPm;
		_ZN6Genode18Allocator_avl_base15_cut_from_blockEPNS0_5BlockEmmS2_S2_;
		_ZN6Genode18Allocator_avl_base20_find_any_used_blockEPNS0_5BlockE;
		_ZN6Genode18Allocator_avl_base21_alloc_block_metadataEv;
		_ZN6Genode18Allocator_avl_base26_alloc_two_blocks_metadataEPPNS0_5BlockES3_;
		_ZN6Genode18Allocator_avl_base30_revert_allocations_and_rangesEv;
		_ZN6Genode18Allocator_avl_base4freeEPv;
		_ZN6Genode18Allocator_avl_base5Block13find_best_fitEmjmm;
		_ZN6Genode18Allocator_avl_base5Block15find_by_addressEmmb;
		_ZN6Genode18Allocator_avl_base5Block16avail_in_subtreeEv;
		_ZN6Genode18Allocator_avl_base5Block9recomputeEv;
		_ZN6Genode18Allocator_avl_base9add_rangeEmm;
		_ZN6Genode18Signal_transmitter6submitEj;
		_ZN6Genode18Signal_transmitter7contextENS_10CapabilityINS_14Signal_contextEEE;
		_ZN6Genode18Signal_transmitter7contextEv;
		_ZN6Genode18Signal_transmitterC1ENS_10CapabilityINS_14Signal_contextEEE;
		_ZN6Genode18Signal_transmitterC2ENS_10CapabilityINS_14Signal_contextEEE;
		_ZN6Genode18server_socket_pairEv;
		_ZN6Genode20env_session_id_spaceEv;
		_ZN6Genode23Alarm_timeout_scheduler14handle_timeoutENS_8DurationE;
		_ZN6Genode23Alarm_timeout_scheduler18_schedule_one_shotERNS_7TimeoutENS_12MicrosecondsE;
		_ZN6Genode23Alarm_timeout_scheduler18_schedule_periodicERNS_7TimeoutENS_12MicrosecondsE;
		_ZN6Genode23Alarm_timeout_scheduler7_enableEv;
		_ZN6Genode23Alarm_timeout_schedulerC1ERNS_11Time_sourceENS_12MicrosecondsE;
		_ZN6Genode23Alarm_timeout_schedulerC2ERNS_11Time_sourceENS_12MicrosecondsE;
		_ZN6Genode23Alarm_timeout_schedulerD0Ev;
		_ZN6Genode23Alarm_timeout_schedulerD1Ev;
		_ZN6Genode23Alarm_timeout_schedulerD2Ev;
		_ZN6Genode25env_stack_area_region_mapE;
		_ZN6Genode28env_stack_area_ram_allocatorE;
		_ZN6Genode3Log3logEv;
		_ZN6Genode3Log8_acquireENS0_4TypeE;
		_ZN6Genode3Log8_releaseEv;
		_ZN6Genode3Raw7_outputEv;
		_ZN6Genode3Raw8_acquireEv;
		_ZN6Genode3Raw8_releaseEv;
		_ZN6Genode4Heap11quota_limitEm;
		_ZN6Genode4Heap4freeEPvm;
		_ZN6Genode4Heap5allocEmPPv;
		_ZN6Genode4HeapC1EPNS_13Ram_allocatorEPNS_10Region_mapEmPvm;
		_ZN6Genode4HeapC2EPNS_13Ram_allocatorEPNS_10Region_mapEmPvm;
		_ZN6Genode4HeapD0Ev;
		_ZN6Genode4HeapD1Ev;
		_ZN6Genode4HeapD2Ev;
		_ZN6Genode4Slab13any_used_elemEv;
		_ZN6Genode4Slab5Block11_slab_entryEi;
		_ZN6Genode4Slab5Block14any_used_entryEv;
		_ZN6Genode4Slab5Block5allocEv;
		_ZN6Genode4Slab5Block9inc_availERNS0_5EntryE;
		_ZN6Genode4Slab5_freeEPv;
		_ZN6Genode4Slab5allocEmPPv;
		_ZN6Genode4Slab9insert_sbEPv;
		_ZN6Genode4SlabC1EmmPvPNS_9AllocatorE;
		_ZN6Genode4SlabC2EmmPvPNS_9AllocatorE;
		_ZN6Genode4SlabD0Ev;
		_ZN6Genode4SlabD1Ev;
		_ZN6Genode4SlabD2Ev;
		_ZN6Genode5AlarmD0Ev;
		_ZN6Genode5AlarmD1Ev;
		_ZN6Genode5AlarmD2Ev;
		_ZN6Genode5Child10yield_sighENS_10CapabilityINS_14Signal_contextEEE;
		_ZN6Genode5Child11session_capENS_8Id_spaceINS_6Parent6ClientEE2IdE;
		_ZN6Genode5Child12session_sighENS_10CapabilityINS_14Signal_contextEEE;
		_ZN6Genode5Child13session_readyERNS_13Session_stateE;
		_ZN6Genode5Child13yield_requestEv;
		_ZN6Genode5Child14session_closedERNS_13Session_stateE;
		_ZN6Genode5Child14yield_responseEv;
		_ZN6Genode5Child16resource_requestERKNS_6StringILm160EEE;
		_ZN6Genode5Child16session_responseENS_8Id_spaceINS_6Parent6ServerEE2IdENS2_16Session_responseE;
		_ZN6Genode5Child18close_all_sessionsEv;
		_ZN6Genode5Child19deliver_session_capENS_8Id_spaceINS_6Parent6ServerEE2IdENS_10CapabilityINS_7SessionEEE;
		_ZN6Genode5Child19resource_avail_sighENS_10CapabilityINS_14Signal_contextEEE;
		_ZN6Genode5Child21initiate_env_sessionsEv;
		_ZN6Genode5Child23initiate_env_pd_sessionEv;
		_ZN6Genode5Child4exitEi;
		_ZN6Genode5Child5closeENS_8Id_spaceINS_6Parent6ClientEE2IdE;
		_ZN6Genode5Child5yieldERKNS_6StringILm160EEE;
		_ZN6Genode5Child7sessionENS_8Id_spaceINS_6Parent6ClientEE2IdERKNS_13Rpc_in_bufferILm64EEERKNS6_ILm160EEERKNS_8AffinityE;
		_ZN6Genode5Child7upgradeENS_8Id_spaceINS_6Parent6ClientEE2IdERKNS_13Rpc_in_bufferILm160EEE;
		_ZN6Genode5Child8announceERKNS_13Rpc_in_bufferILm64EEE;
		_ZN6Genode5Child9heartbeatEv;
		_ZN6Genode5ChildC1ERNS_10Region_mapERNS_14Rpc_entrypointERNS_12Child_policyE;
		_ZN6Genode5ChildC2ERNS_10Region_mapERNS_14Rpc_entrypointERNS_12Child_policyE;
		_ZN6Genode5ChildD0Ev;
		_ZN6Genode5ChildD1Ev;
		_ZN6Genode5ChildD2Ev;
		_ZN6Genode5Mutex7acquireEv;
		_ZN6Genode5Mutex7releaseEv;
		_ZN6Genode5Stack4sizeEm;
		_ZN6Genode5Trace6Logger17_evaluate_controlEv;
		_ZN6Genode5Trace6Logger3logEPKcm;
		_ZN6Genode5Trace6LoggerC1Ev;
		_ZN6Genode5Trace6LoggerC2Ev;
		_ZN6Genode5printERNS_6OutputEPKc;
		_ZN6Genode5printERNS_6OutputEPKv;
		_ZN6Genode5printERNS_6OutputEd;
		_ZN6Genode5printERNS_6OutputEf;
		_ZN6Genode5printERNS_6OutputEl;
		_ZN6Genode5printERNS_6OutputEm;
		_ZN6Genode5printERNS_6OutputEx;
		_ZN6Genode5printERNS_6OutputEy;
		_ZN6Genode6Output10out_stringEPKcm;
		_ZN6Genode6Parent8announceERKNS_13Rpc_in_bufferILm64EEENS_10CapabilityINS_4RootEEE;
		_ZN6Genode6Signal19_dec_ref_and_unlockEv;
		_ZN6Genode6Signal8_inc_refEv;
		_ZN6Genode6SignalC1ENS0_4DataE;
		_ZN6Genode6SignalC1ERKS0_;
		_ZN6Genode6SignalC2ENS0_4DataE;
		_ZN6Genode6SignalC2ERKS0_;
		_ZN6Genode6SignalD1Ev;
		_ZN6Genode6SignalD2Ev;
		_ZN6Genode6SignalaSERKS0_;
		_ZN6Genode6Thread10stack_sizeEm;
		_ZN6Genode6Thread13native_threadEv;
		_ZN6Genode6Thread15cancel_blockingEv;
		_ZN6Genode6Thread18stack_virtual_sizeEv;
		_ZN6Genode6Thread20free_secondary_stackEPv;
		_ZN6Genode6Thread21alloc_secondary_stackEPKcm;
		_ZN6Genode6Thread23stack_area_virtual_baseEv;
		_ZN6Genode6Thread23stack_area_virtual_sizeEv;
		_ZN6Genode6Thread4joinEv;
		_ZN6Genode6Thread4nameEPcm;
		_ZN6Genode6Thread4utcbEv;
		_ZN6Genode6Thread5startEv;
		_ZN6Genode6Thread6myselfEv;
		_ZN6Genode6Thread7_loggerEv;
		_ZN6Genode6Thread7mystackEv;
		_ZN6Genode6ThreadC1ERNS_3EnvERKNS_6StringILm32EEEm;
		_ZN6Genode6ThreadC1ERNS_3EnvERKNS_6StringILm32EEEmNS_8Affinity8LocationENS_11Cpu_session6WeightERS9_;
		_ZN6Genode6ThreadC1EmPKcmNS0_4TypeENS_8Affinity8LocationE;
		_ZN6Genode6ThreadC1EmPKcmNS0_4TypeEPNS_11Cpu_sessionENS_8Affinity8LocationE;
		_ZN6Genode6ThreadC2ERNS_3EnvERKNS_6StringILm32EEEm;
		_ZN6Genode6ThreadC2ERNS_3EnvERKNS_6StringILm32EEEmNS_8Affinity8LocationENS_11Cpu_session6WeightERS9_;
		_ZN6Genode6ThreadC2EmPKcmNS0_4TypeENS_8Affinity8LocationE;
		_ZN6Genode6ThreadC2EmPKcmNS0_4TypeEPNS_11Cpu_sessionENS_8Affinity8LocationE;
		_ZN6Genode6ThreadD0Ev;
		_ZN6Genode6ThreadD1Ev;
		_ZN6Genode6ThreadD2Ev;
		_ZN6Genode7Console11_out_stringEPKc;
		_ZN6Genode7Console6printfEPKcz;
		_ZN6Genode7Console7vprintfEPKcP13__va_list_tag;
		_ZN6Genode7Console7vprintfEPKcPc;
		_ZN6Genode7Console7vprintfEPKcPv;
		_ZN6Genode7Console7vprintfEPKcSt9__va_list;
		_ZN6Genode7Timeout17schedule_one_shotENS_12MicrosecondsERNS0_7HandlerE;
		_ZN6Genode7Timeout17schedule_periodicENS_12MicrosecondsERNS0_7HandlerE;
		_ZN6Genode7Timeout5AlarmD0Ev;
		_ZN6Genode7Timeout5AlarmD1Ev;
		_ZN6Genode7Timeout5AlarmD2Ev;
		_ZN6Genode7Timeout7discardEv;
		_ZN6Genode7cap_mapEv;
		_ZN6Genode8Duration3addENS_12MicrosecondsE;
		_ZN6Genode8Duration3addENS_12MillisecondsE;
		_ZN6Genode8ipc_callENS_17Native_capabilityERNS_11Msgbuf_baseES2_m;
		_ZN6Genode9ipc_replyENS_17Native_capabilityENS_18Rpc_exception_codeERNS_11Msgbuf_baseE;
		_ZNK6Genode11Sliced_heap8overheadEm;
		_ZNK6Genode13Session_state24generate_session_requestERNS_13Xml_generatorE;
		_ZNK6Genode13Session_state25generate_client_side_infoERNS_13Xml_generatorENS0_6DetailE;
		_ZNK6Genode13Session_state25generate_server_side_infoERNS_13Xml_generatorENS0_6DetailE;
		_ZNK6Genode13Session_state5printERNS_6OutputE;
		_ZNK6Genode13Shared_object7_lookupEPKc;
		_ZNK6Genode13Shared_object8link_mapEv;
		_ZNK6Genode14Rpc_entrypoint9is_myselfEv;
		_ZNK6Genode17Native_capability10local_nameEv;
		_ZNK6Genode17Native_capability3rawEv;
		_ZNK6Genode17Native_capability5printERNS_6OutputE;
		_ZNK6Genode17Native_capability5validEv;
		_ZNK6Genode18Allocator_avl_base10valid_addrEm;
		_ZNK6Genode18Allocator_avl_base5availEv;
		_ZNK6Genode18Allocator_avl_base7size_atEPKv;
		_ZNK6Genode3Hex5printERNS_6OutputE;
		_ZNK6Genode4Slab8consumedEv;
		_ZNK6Genode5Child15main_thread_capEv;
		_ZNK6Genode5Child18skipped_heartbeatsEv;
		_ZNK6Genode5Child21notify_resource_availEv;
		_ZNK6Genode6Thread10stack_baseEv;
		_ZNK6Genode6Thread4nameEv;
		_ZNK6Genode6Thread9stack_topEv;
		_ZNK6Genode8Duration17trunc_to_plain_msEv;
		_ZNK6Genode8Duration17trunc_to_plain_usEv;
		_ZNK6Genode8Duration9less_thanERKS0_;
		_ZTIN5Timer10ConnectionE;
		_ZTIN6Genode10Vm_sessionE;
		_ZTIN6Genode11Sliced_heapE;
		_ZTIN6Genode14Rpc_entrypointE;
		_ZTIN6Genode14Signal_contextE;
		_ZTIN6Genode17Region_map_clientE;
		_ZTIN6Genode17Rm_session_clientE;
		_ZTIN6Genode18Allocator_avl_baseE;
		_ZTIN6Genode23Alarm_timeout_schedulerE;
		_ZTIN6Genode4HeapE;
		_ZTIN6Genode4SlabE;
		_ZTIN6Genode5AlarmE;
		_ZTIN6Genode5Child14Initial_threadE;
		_ZTIN6Genode5ChildE;
		_ZTIN6Genode6OutputE;
		_ZTIN6Genode6ThreadE;
		_ZTIN6Genode7ConsoleE;
		_ZTIN6Genode7Timeout5AlarmE;
		_ZTSN5Timer10ConnectionE;
		_ZTSN6Genode11Sliced_heapE;
		_ZTSN6Genode14Rpc_entrypointE;
		_ZTSN6Genode14Signal_contextE;
		_ZTSN6Genode17Region_map_clientE;
		_ZTSN6Genode17Rm_session_clientE;
		_ZTSN6Genode18Allocator_avl_baseE;
		_ZTSN6Genode23Alarm_timeout_schedulerE;
		_ZTSN6Genode4HeapE;
		_ZTSN6Genode4SlabE;
		_ZTSN6Genode5AlarmE;
		_ZTSN6Genode5Child14Initial_threadE;
		_ZTSN6Genode5ChildE;
		_ZTSN6Genode6OutputE;
		_ZTSN6Genode6ThreadE;
		_ZTSN6Genode7ConsoleE;
		_ZTSN6Genode7Timeout5AlarmE;
		_ZTVN5Timer10ConnectionE;
		_ZTVN6Genode10Vm_sessionE;
		_ZTVN6Genode11Sliced_heapE;
		_ZTVN6Genode14Rpc_entrypointE;
		_ZTVN6Genode14Signal_contextE;
		_ZTVN6Genode17Region_map_clientE;
		_ZTVN6Genode17Rm_session_clientE;
		_ZTVN6Genode18Allocator_avl_baseE;
		_ZTVN6Genode23Alarm_timeout_schedulerE;
		_ZTVN6Genode4HeapE;
		_ZTVN6Genode4SlabE;
		_ZTVN6Genode5AlarmE;
		_ZTVN6Genode5Child14Initial_threadE;
		_ZTVN6Genode5ChildE;
		_ZTVN6Genode6OutputE;
		_ZTVN6Genode6ThreadE;
		_ZTVN6Genode7ConsoleE;
		_ZTVN6Genode7Timeout5AlarmE;
		_ZThn236_N5Timer10Connection16schedule_timeoutEN6Genode12MicrosecondsERNS1_11Time_source15Timeout_handlerE;
		_ZThn236_N5Timer10Connection9curr_timeEv;
		_ZThn240_N5Timer10Connection18_schedule_one_shotERN6Genode7TimeoutENS1_12MicrosecondsE;
		_ZThn240_N5Timer10Connection18_schedule_periodicERN6Genode7TimeoutENS1_12MicrosecondsE;
		_ZThn240_N5Timer10Connection8_discardERN6Genode7TimeoutE;
		_ZThn240_N5Timer10Connection9curr_timeEv;
		_ZThn288_N5Timer10Connection16schedule_timeoutEN6Genode12MicrosecondsERNS1_11Time_source15Timeout_handlerE;
		_ZThn288_N5Timer10Connection9curr_timeEv;
		_ZThn296_N5Timer10Connection18_schedule_one_shotERN6Genode7TimeoutENS1_12MicrosecondsE;
		_ZThn296_N5Timer10Connection18_schedule_periodicERN6Genode7TimeoutENS1_12MicrosecondsE;
		_ZThn296_N5Timer10Connection8_discardERN6Genode7TimeoutE;
		_ZThn296_N5Timer10Connection9curr_timeEv;
		_ZThn4_N6Genode23Alarm_timeout_scheduler14handle_timeoutENS_8DurationE;
		_ZThn8_N6Genode23Alarm_timeout_scheduler14handle_timeoutENS_8DurationE;
		_ZThn8_N6Genode23Alarm_timeout_schedulerD0Ev;
		_ZThn8_N6Genode23Alarm_timeout_schedulerD1Ev;
		_ZdlPvPN6Genode11DeallocatorE;
		_ZdlPvPN6Genode9AllocatorE;
		_ZdlPvRN6Genode11DeallocatorE;
		_ZdlPvRN6Genode9AllocatorE;
		_ZnajPN6Genode9AllocatorE;
		_ZnajRN6Genode9AllocatorE;
		_ZnamPN6Genode9AllocatorE;
		_ZnamRN6Genode9AllocatorE;
		_ZnwjPN6Genode9AllocatorE;
		_ZnwjRN6Genode9AllocatorE;
		_ZnwmPN6Genode9AllocatorE;
		_ZnwmRN6Genode9AllocatorE;
		genode_argc;
		genode_argv;
		genode_envp;
		lx_environ;
		memcpy;
		memmove;
		memset;
		stdout_reconnect;
		wait_for_continue;
		_Unwind_Complete;
		_Unwind_DeleteException;
		_Unwind_Resume;
		_ZNK10__cxxabiv117__class_type_info10__do_catchEPKSt9type_infoPPvj;
		_ZNK10__cxxabiv120__si_class_type_info11__do_upcastEPKNS_17__class_type_infoEPKvRNS1_15__upcast_resultE;
		_ZNK10__cxxabiv120__si_class_type_info12__do_dyncastElNS_17__class_type_info10__sub_kindEPKS1_PKvS4_S6_RNS1_16__dyncast_resultE;
		_ZNK10__cxxabiv120__si_class_type_info20__do_find_public_srcElPKvPKNS_17__class_type_infoES2_;
		_ZNKSt13bad_exception4whatEv;
		_ZNKSt9exception4whatEv;
		_ZNSt13bad_exceptionD0Ev;
		_ZNSt13bad_exceptionD1Ev;
		_ZNSt13bad_exceptionD2Ev;
		_ZNSt9exceptionD0Ev;
		_ZNSt9exceptionD1Ev;
		_ZNSt9exceptionD2Ev;
		_ZSt18uncaught_exceptionv;
		_ZSt19uncaught_exceptionsv;
		_ZSt9terminatev;
		_ZTIDd;
		_ZTIDe;
		_ZTIDf;
		_ZTIDi;
		_ZTIDn;
		_ZTIDs;
		_ZTIN10__cxxabiv115__forced_unwindE;
		_ZTIN10__cxxabiv116__enum_type_infoE;
		_ZTIN10__cxxabiv117__class_type_infoE;
		_ZTIN10__cxxabiv117__pbase_type_infoE;
		_ZTIN10__cxxabiv119__foreign_exceptionE;
		_ZTIN10__cxxabiv119__pointer_type_infoE;
		_ZTIN10__cxxabiv120__function_type_infoE;
		_ZTIN10__cxxabiv120__si_class_type_infoE;
		_ZTIN10__cxxabiv121__vmi_class_type_infoE;
		_ZTIN10__cxxabiv123__fundamental_type_infoE;
		_ZTIPDd;
		_ZTIPDe;
		_ZTIPDf;
		_ZTIPDi;
		_ZTIPDn;
		_ZTIPDs;
		_ZTIPKDd;
		_ZTIPKDe;
		_ZTIPKDf;
		_ZTIPKDi;
		_ZTIPKDn;
		_ZTIPKDs;
		_ZTIPKa;
		_ZTIPKb;
		_ZTIPKc;
		_ZTIPKd;
		_ZTIPKe;
		_ZTIPKf;
		_ZTIPKh;
		_ZTIPKi;
		_ZTIPKj;
		_ZTIPKl;
		_ZTIPKm;
		_ZTIPKs;
		_ZTIPKt;
		_ZTIPKx;
		_ZTIPKy;
		_ZTIPVKa;
		_ZTIPVKb;
		_ZTIPVKc;
		_ZTIPVKd;
		_ZTIPVKe;
		_ZTIPVKf;
		_ZTIPVKh;
		_ZTIPVKi;
		_ZTIPVKj;
		_ZTIPVKl;
		_ZTIPVKm;
		_ZTIPVKs;
		_ZTIPVKt;
		_ZTIPVKx;
		_ZTIPVKy;
		_ZTIPVa;
		_ZTIPVb;
		_ZTIPVc;
		_ZTIPVd;
		_ZTIPVe;
		_ZTIPVf;
		_ZTIPVh;
		_ZTIPVi;
		_ZTIPVj;
		_ZTIPVl;
		_ZTIPVm;
		_ZTIPVs;
		_ZTIPVt;
		_ZTIPVx;
		_ZTIPVy;
		_ZTIPa;
		_ZTIPb;
		_ZTIPc;
		_ZTIPd;
		_ZTIPe;
		_ZTIPf;
		_ZTIPh;
		_ZTIPi;
		_ZTIPj;
		_ZTIPl;
		_ZTIPm;
		_ZTIPs;
		_ZTIPt;
		_ZTIPx;
		_ZTIPy;
		_ZTISt10bad_typeid;
		_ZTISt13bad_exception;
		_ZTISt16bad_array_length;
		_ZTISt20bad_array_new_length;
		_ZTISt8bad_cast;
		_ZTISt9bad_alloc;
		_ZTISt9exception;
		_ZTISt9type_info;
		_ZTIa;
		_ZTIb;
		_ZTIc;
		_ZTId;
		_ZTIe;
		_ZTIf;
		_ZTIh;
		_ZTIi;
		_ZTIj;
		_ZTIl;
		_ZTIm;
		_ZTIs;
		_ZTIt;
		_ZTIx;
		_ZTIy;
		_ZTSN10__cxxabiv115__forced_unwindE;
		_ZTSN10__cxxabiv116__enum_type_infoE;
		_ZTSN10__cxxabiv117__class_type_infoE;
		_ZTSN10__cxxabiv117__pbase_type_infoE;
		_ZTSN10__cxxabiv119__foreign_exceptionE;
		_ZTSN10__cxxabiv119__pointer_type_infoE;
		_ZTSN10__cxxabiv120__function_type_infoE;
		_ZTSN10__cxxabiv120__si_class_type_infoE;
		_ZTSN10__cxxabiv121__vmi_class_type_infoE;
		_ZTSN10__cxxabiv123__fundamental_type_infoE;
		_ZTSSt10bad_typeid;
		_ZTSSt13bad_exception;
		_ZTSSt16bad_array_length;
		_ZTSSt20bad_array_new_length;
		_ZTSSt8bad_cast;
		_ZTSSt9bad_alloc;
		_ZTSSt9exception;
		_ZTSSt9type_info;
		_ZTVN10__cxxabiv115__forced_unwindE;
		_ZTVN10__cxxabiv116__enum_type_infoE;
		_ZTVN10__cxxabiv117__class_type_infoE;
		_ZTVN10__cxxabiv117__pbase_type_infoE;
		_ZTVN10__cxxabiv119__foreign_exceptionE;
		_ZTVN10__cxxabiv119__pointer_type_infoE;
		_ZTVN10__cxxabiv120__function_type_infoE;
		_ZTVN10__cxxabiv120__si_class_type_infoE;
		_ZTVN10__cxxabiv121__vmi_class_type_infoE;
		_ZTVN10__cxxabiv123__fundamental_type_infoE;
		_ZTVSt10bad_typeid;
		_ZTVSt13bad_exception;
		_ZTVSt16bad_array_length;
		_ZTVSt20bad_array_new_length;
		_ZTVSt8bad_cast;
		_ZTVSt9bad_alloc;
		_ZTVSt9exception;
		_ZTVSt9type_info;
		_ZdlPv;
		_ZdlPvm;
		__aeabi_atexit;
		__aeabi_unwind_cpp_pr0;
		__aeabi_unwind_cpp_pr1;
		__cxa_allocate_dependent_exception;
		__cxa_allocate_exception;
		__cxa_atexit;
		__cxa_bad_cast;
		__cxa_bad_typeid;
		__cxa_begin_catch;
		__cxa_begin_cleanup;
		__cxa_call_terminate;
		__cxa_call_unexpected;
		__cxa_current_exception_type;
		__cxa_demangle;
		__cxa_end_catch;
		__cxa_end_cleanup;
		__cxa_finalize;
		__cxa_free_dependent_exception;
		__cxa_free_exception;
		__cxa_get_exception_ptr;
		__cxa_get_globals;
		__cxa_get_globals_fast;
		__cxa_guard_abort;
		__cxa_guard_acquire;
		__cxa_guard_release;
		__cxa_pure_virtual;
		__cxa_rethrow;
		__cxa_throw;
		__cxa_throw_bad_array_length;
		__cxa_throw_bad_array_new_length;
		__cxa_type_match;
		__dynamic_cast;
		__emutls_get_address;
		__gxx_personality_v0;
		__stack_chk_fail;
		__stack_chk_guard;
		dl_iterate_phdr;
		dl_unwind_find_exidx;
	local: *;
};
