#
# \brief  Genode application binary interface (ABI)
# \author Norman Feske
# \date   2016-12-20
#
# This file contains the binary application interface (ABI) provided by
# Genode's dynamic linker. Each line contains the name of a symbol followed
# by its type (according to the encoding used by binutil's 'nm' tool). Data
# symbols are furher annotated by the size of their corresponding data object.
# The latter is only needed on ARM.
#
# On the ARM architecture, copy relocations are created for read-only data
# objects that are present in shared libraries. For each data object, the
# linker preserves a slot in the program's BSS according to the object size.
# At runtime, the dynamic linker copies the data from the shared library's
# read-only segment to these slots. The copy relocations for a given binary
# can be inspected via 'objdump -R'. The size of data symbols as present in a
# shared library (like 'ld-hw.lib.a') can be inspected via 'nm --format posix'.
# The data-object sizes as annotated here must always be at least as big as the
# corresponding data objects present in the dynamic linker.
#
# The original version of this file is based on the output of the
# 'tool/abi_symbols' tool with 'ld-<platform>.lib.so' used as argument.
# However, this tool was solely used as a starting point for the - now
# manually maintained - file.
#
# Note that not all symbols present in this list are provided by each variant
# of the dynamic linker. I.e., there are a few symbols that are specific for a
# particular kernel or the C++ ABI of a specific architecture.
#
# Please keep sections of this file sorted via 'LC_COLLATE=C sort'.
#

#
# Copyright (C) 2016-2020 Genode Labs GmbH
#
# This file is part of the Genode OS framework, which is distributed
# under the terms of the GNU Affero General Public License version 3.
#

.text; .global _Z11genode_exiti; .type _Z11genode_exiti,%function; _Z11genode_exiti:
.text; .global _Z13genode_atexitPFvvE; .type _Z13genode_atexitPFvvE,%function; _Z13genode_atexitPFvvE:
.text; .global _Z16main_thread_utcbv; .type _Z16main_thread_utcbv,%function; _Z16main_thread_utcbv:
.text; .global _Z21genode___cxa_finalizePv; .type _Z21genode___cxa_finalizePv,%function; _Z21genode___cxa_finalizePv:
.text; .global _Z22__ldso_raise_exceptionv; .type _Z22__ldso_raise_exceptionv,%function; _Z22__ldso_raise_exceptionv:
.text; .global _ZN5Timer10Connection16schedule_timeoutEN6Genode12MicrosecondsERNS1_11Time_source15Timeout_handlerE; .type _ZN5Timer10Connection16schedule_timeoutEN6Genode12MicrosecondsERNS1_11Time_source15Timeout_handlerE,%function; _ZN5Timer10Connection16schedule_timeoutEN6Genode12MicrosecondsERNS1_11Time_source15Timeout_handlerE:
.text; .global _ZN5Timer10Connection18_schedule_one_shotERN6Genode7TimeoutENS1_12MicrosecondsE; .type _ZN5Timer10Connection18_schedule_one_shotERN6Genode7TimeoutENS1_12MicrosecondsE,%function; _ZN5Timer10Connection18_schedule_one_shotERN6Genode7TimeoutENS1_12MicrosecondsE:
.text; .global _ZN5Timer10Connection18_schedule_periodicERN6Genode7TimeoutENS1_12MicrosecondsE; .type _ZN5Timer10Connection18_schedule_periodicERN6Genode7TimeoutENS1_12MicrosecondsE,%function; _ZN5Timer10Connection18_schedule_periodicERN6Genode7TimeoutENS1_12MicrosecondsE:
.text; .global _ZN5Timer10Connection8_discardERN6Genode7TimeoutE; .type _ZN5Timer10Connection8_discardERN6Genode7TimeoutE,%function; _ZN5Timer10Connection8_discardERN6Genode7TimeoutE:
.text; .global _ZN5Timer10Connection9curr_timeEv; .type _ZN5Timer10Connection9curr_timeEv,%function; _ZN5Timer10Connection9curr_timeEv:
.text; .global _ZN5Timer10ConnectionC1ERN6Genode3EnvEPKc; .type _ZN5Timer10ConnectionC1ERN6Genode3EnvEPKc,%function; _ZN5Timer10ConnectionC1ERN6Genode3EnvEPKc:
.text; .global _ZN5Timer10ConnectionC1ERN6Genode3EnvERNS1_10EntrypointEPKc; .type _ZN5Timer10ConnectionC1ERN6Genode3EnvERNS1_10EntrypointEPKc,%function; _ZN5Timer10ConnectionC1ERN6Genode3EnvERNS1_10EntrypointEPKc:
.text; .global _ZN5Timer10ConnectionC2ERN6Genode3EnvEPKc; .type _ZN5Timer10ConnectionC2ERN6Genode3EnvEPKc,%function; _ZN5Timer10ConnectionC2ERN6Genode3EnvEPKc:
.text; .global _ZN5Timer10ConnectionC2ERN6Genode3EnvERNS1_10EntrypointEPKc; .type _ZN5Timer10ConnectionC2ERN6Genode3EnvERNS1_10EntrypointEPKc,%function; _ZN5Timer10ConnectionC2ERN6Genode3EnvERNS1_10EntrypointEPKc:
.text; .global _ZN6Genode10Entrypoint16_dispatch_signalERNS_6SignalE; .type _ZN6Genode10Entrypoint16_dispatch_signalERNS_6SignalE,%function; _ZN6Genode10Entrypoint16_dispatch_signalERNS_6SignalE:
.text; .global _ZN6Genode10Entrypoint16schedule_suspendEPFvvES2_; .type _ZN6Genode10Entrypoint16schedule_suspendEPFvvES2_,%function; _ZN6Genode10Entrypoint16schedule_suspendEPFvvES2_:
.text; .global _ZN6Genode10Entrypoint22Signal_proxy_component6signalEv; .type _ZN6Genode10Entrypoint22Signal_proxy_component6signalEv,%function; _ZN6Genode10Entrypoint22Signal_proxy_component6signalEv:
.text; .global _ZN6Genode10Entrypoint25_process_incoming_signalsEv; .type _ZN6Genode10Entrypoint25_process_incoming_signalsEv,%function; _ZN6Genode10Entrypoint25_process_incoming_signalsEv:
.text; .global _ZN6Genode10Entrypoint32_wait_and_dispatch_one_io_signalEb; .type _ZN6Genode10Entrypoint32_wait_and_dispatch_one_io_signalEb,%function; _ZN6Genode10Entrypoint32_wait_and_dispatch_one_io_signalEb:
.text; .global _ZN6Genode10Entrypoint6manageERNS_22Signal_dispatcher_baseE; .type _ZN6Genode10Entrypoint6manageERNS_22Signal_dispatcher_baseE,%function; _ZN6Genode10Entrypoint6manageERNS_22Signal_dispatcher_baseE:
.text; .global _ZN6Genode10Entrypoint8dissolveERNS_22Signal_dispatcher_baseE; .type _ZN6Genode10Entrypoint8dissolveERNS_22Signal_dispatcher_baseE,%function; _ZN6Genode10Entrypoint8dissolveERNS_22Signal_dispatcher_baseE:
.text; .global _ZN6Genode10EntrypointC1ERNS_3EnvE; .type _ZN6Genode10EntrypointC1ERNS_3EnvE,%function; _ZN6Genode10EntrypointC1ERNS_3EnvE:
.text; .global _ZN6Genode10EntrypointC1ERNS_3EnvEmPKcNS_8Affinity8LocationE; .type _ZN6Genode10EntrypointC1ERNS_3EnvEmPKcNS_8Affinity8LocationE,%function; _ZN6Genode10EntrypointC1ERNS_3EnvEmPKcNS_8Affinity8LocationE:
.text; .global _ZN6Genode10EntrypointC2ERNS_3EnvEmPKcNS_8Affinity8LocationE; .type _ZN6Genode10EntrypointC2ERNS_3EnvEmPKcNS_8Affinity8LocationE,%function; _ZN6Genode10EntrypointC2ERNS_3EnvEmPKcNS_8Affinity8LocationE:
.text; .global _ZN6Genode10EntrypointD1Ev; .type _ZN6Genode10EntrypointD1Ev,%function; _ZN6Genode10EntrypointD1Ev:
.text; .global _ZN6Genode10EntrypointD2Ev; .type _ZN6Genode10EntrypointD2Ev,%function; _ZN6Genode10EntrypointD2Ev:
.text; .global _ZN6Genode10Ipc_serverC1Ev; .type _ZN6Genode10Ipc_serverC1Ev,%function; _ZN6Genode10Ipc_serverC1Ev:
.text; .global _ZN6Genode10Ipc_serverC2Ev; .type _ZN6Genode10Ipc_serverC2Ev,%function; _ZN6Genode10Ipc_serverC2Ev:
.text; .global _ZN6Genode10Ipc_serverD1Ev; .type _ZN6Genode10Ipc_serverD1Ev,%function; _ZN6Genode10Ipc_serverD1Ev:
.text; .global _ZN6Genode10Ipc_serverD2Ev; .type _ZN6Genode10Ipc_serverD2Ev,%function; _ZN6Genode10Ipc_serverD2Ev:
.text; .global _ZN6Genode10Vm_sessionD0Ev; .type _ZN6Genode10Vm_sessionD0Ev,%function; _ZN6Genode10Vm_sessionD0Ev:
.text; .global _ZN6Genode10Vm_sessionD2Ev; .type _ZN6Genode10Vm_sessionD2Ev,%function; _ZN6Genode10Vm_sessionD2Ev:
.text; .global _ZN6Genode11Sliced_heap4freeEPvm; .type _ZN6Genode11Sliced_heap4freeEPvm,%function; _ZN6Genode11Sliced_heap4freeEPvm:
.text; .global _ZN6Genode11Sliced_heap5allocEmPPv; .type _ZN6Genode11Sliced_heap5allocEmPPv,%function; _ZN6Genode11Sliced_heap5allocEmPPv:
.text; .global _ZN6Genode11Sliced_heapC1ERNS_13Ram_allocatorERNS_10Region_mapE; .type _ZN6Genode11Sliced_heapC1ERNS_13Ram_allocatorERNS_10Region_mapE,%function; _ZN6Genode11Sliced_heapC1ERNS_13Ram_allocatorERNS_10Region_mapE:
.text; .global _ZN6Genode11Sliced_heapC2ERNS_13Ram_allocatorERNS_10Region_mapE; .type _ZN6Genode11Sliced_heapC2ERNS_13Ram_allocatorERNS_10Region_mapE,%function; _ZN6Genode11Sliced_heapC2ERNS_13Ram_allocatorERNS_10Region_mapE:
.text; .global _ZN6Genode11Sliced_heapD0Ev; .type _ZN6Genode11Sliced_heapD0Ev,%function; _ZN6Genode11Sliced_heapD0Ev:
.text; .global _ZN6Genode11Sliced_heapD1Ev; .type _ZN6Genode11Sliced_heapD1Ev,%function; _ZN6Genode11Sliced_heapD1Ev:
.text; .global _ZN6Genode11Sliced_heapD2Ev; .type _ZN6Genode11Sliced_heapD2Ev,%function; _ZN6Genode11Sliced_heapD2Ev:
.text; .global _ZN6Genode12Address_infoC1Em; .type _ZN6Genode12Address_infoC1Em,%function; _ZN6Genode12Address_infoC1Em:
.text; .global _ZN6Genode12Address_infoC2Em; .type _ZN6Genode12Address_infoC2Em,%function; _ZN6Genode12Address_infoC2Em:
.text; .global _ZN6Genode12Trace_output12trace_outputEv; .type _ZN6Genode12Trace_output12trace_outputEv,%function; _ZN6Genode12Trace_output12trace_outputEv:
.text; .global _ZN6Genode12Trace_output8_acquireEv; .type _ZN6Genode12Trace_output8_acquireEv,%function; _ZN6Genode12Trace_output8_acquireEv:
.text; .global _ZN6Genode12Trace_output8_releaseEv; .type _ZN6Genode12Trace_output8_releaseEv,%function; _ZN6Genode12Trace_output8_releaseEv:
.text; .global _ZN6Genode13Avl_node_base15_rotate_subtreeEPS0_bRNS0_6PolicyE; .type _ZN6Genode13Avl_node_base15_rotate_subtreeEPS0_bRNS0_6PolicyE,%function; _ZN6Genode13Avl_node_base15_rotate_subtreeEPS0_bRNS0_6PolicyE:
.text; .global _ZN6Genode13Avl_node_base18_rebalance_subtreeEPS0_RNS0_6PolicyE; .type _ZN6Genode13Avl_node_base18_rebalance_subtreeEPS0_RNS0_6PolicyE,%function; _ZN6Genode13Avl_node_base18_rebalance_subtreeEPS0_RNS0_6PolicyE:
.text; .global _ZN6Genode13Avl_node_base6_adoptEPS0_bRNS0_6PolicyE; .type _ZN6Genode13Avl_node_base6_adoptEPS0_bRNS0_6PolicyE,%function; _ZN6Genode13Avl_node_base6_adoptEPS0_bRNS0_6PolicyE:
.text; .global _ZN6Genode13Avl_node_base6insertEPS0_RNS0_6PolicyE; .type _ZN6Genode13Avl_node_base6insertEPS0_RNS0_6PolicyE,%function; _ZN6Genode13Avl_node_base6insertEPS0_RNS0_6PolicyE:
.text; .global _ZN6Genode13Avl_node_base6removeERNS0_6PolicyE; .type _ZN6Genode13Avl_node_base6removeERNS0_6PolicyE,%function; _ZN6Genode13Avl_node_base6removeERNS0_6PolicyE:
.text; .global _ZN6Genode13Avl_node_baseC1Ev; .type _ZN6Genode13Avl_node_baseC1Ev,%function; _ZN6Genode13Avl_node_baseC1Ev:
.text; .global _ZN6Genode13Avl_node_baseC2Ev; .type _ZN6Genode13Avl_node_baseC2Ev,%function; _ZN6Genode13Avl_node_baseC2Ev:
.text; .global _ZN6Genode13Registry_base7ElementC1ERS0_Pv; .type _ZN6Genode13Registry_base7ElementC1ERS0_Pv,%function; _ZN6Genode13Registry_base7ElementC1ERS0_Pv:
.text; .global _ZN6Genode13Registry_base7ElementC2ERS0_Pv; .type _ZN6Genode13Registry_base7ElementC2ERS0_Pv,%function; _ZN6Genode13Registry_base7ElementC2ERS0_Pv:
.text; .global _ZN6Genode13Registry_base7ElementD1Ev; .type _ZN6Genode13Registry_base7ElementD1Ev,%function; _ZN6Genode13Registry_base7ElementD1Ev:
.text; .global _ZN6Genode13Registry_base7ElementD2Ev; .type _ZN6Genode13Registry_base7ElementD2Ev,%function; _ZN6Genode13Registry_base7ElementD2Ev:
.text; .global _ZN6Genode13Registry_base7_insertERNS0_7ElementE; .type _ZN6Genode13Registry_base7_insertERNS0_7ElementE,%function; _ZN6Genode13Registry_base7_insertERNS0_7ElementE:
.text; .global _ZN6Genode13Registry_base7_removeERNS0_7ElementE; .type _ZN6Genode13Registry_base7_removeERNS0_7ElementE,%function; _ZN6Genode13Registry_base7_removeERNS0_7ElementE:
.text; .global _ZN6Genode13Registry_base9_for_eachERNS0_15Untyped_functorE; .type _ZN6Genode13Registry_base9_for_eachERNS0_15Untyped_functorE,%function; _ZN6Genode13Registry_base9_for_eachERNS0_15Untyped_functorE:
.text; .global _ZN6Genode13Session_state7destroyEv; .type _ZN6Genode13Session_state7destroyEv,%function; _ZN6Genode13Session_state7destroyEv:
.text; .global _ZN6Genode13Session_stateC1ERNS_7ServiceERNS_8Id_spaceINS_6Parent6ClientEEENS6_2IdERKNS_13Session_labelERKNS_6StringILm256EEERKNS_8AffinityE; .type _ZN6Genode13Session_stateC1ERNS_7ServiceERNS_8Id_spaceINS_6Parent6ClientEEENS6_2IdERKNS_13Session_labelERKNS_6StringILm256EEERKNS_8AffinityE,%function; _ZN6Genode13Session_stateC1ERNS_7ServiceERNS_8Id_spaceINS_6Parent6ClientEEENS6_2IdERKNS_13Session_labelERKNS_6StringILm256EEERKNS_8AffinityE:
.text; .global _ZN6Genode13Session_stateC2ERNS_7ServiceERNS_8Id_spaceINS_6Parent6ClientEEENS6_2IdERKNS_13Session_labelERKNS_6StringILm256EEERKNS_8AffinityE; .type _ZN6Genode13Session_stateC2ERNS_7ServiceERNS_8Id_spaceINS_6Parent6ClientEEENS6_2IdERKNS_13Session_labelERKNS_6StringILm256EEERKNS_8AffinityE,%function; _ZN6Genode13Session_stateC2ERNS_7ServiceERNS_8Id_spaceINS_6Parent6ClientEEENS6_2IdERKNS_13Session_labelERKNS_6StringILm256EEERKNS_8AffinityE:
.text; .global _ZN6Genode13Shared_objectC1ERNS_3EnvERNS_9AllocatorEPKcNS0_4BindENS0_4KeepE; .type _ZN6Genode13Shared_objectC1ERNS_3EnvERNS_9AllocatorEPKcNS0_4BindENS0_4KeepE,%function; _ZN6Genode13Shared_objectC1ERNS_3EnvERNS_9AllocatorEPKcNS0_4BindENS0_4KeepE:
.text; .global _ZN6Genode13Shared_objectC2ERNS_3EnvERNS_9AllocatorEPKcNS0_4BindENS0_4KeepE; .type _ZN6Genode13Shared_objectC2ERNS_3EnvERNS_9AllocatorEPKcNS0_4BindENS0_4KeepE,%function; _ZN6Genode13Shared_objectC2ERNS_3EnvERNS_9AllocatorEPKcNS0_4BindENS0_4KeepE:
.text; .global _ZN6Genode13Shared_objectD1Ev; .type _ZN6Genode13Shared_objectD1Ev,%function; _ZN6Genode13Shared_objectD1Ev:
.text; .global _ZN6Genode13Shared_objectD2Ev; .type _ZN6Genode13Shared_objectD2Ev,%function; _ZN6Genode13Shared_objectD2Ev:
.text; .global _ZN6Genode13sleep_foreverEv; .type _ZN6Genode13sleep_foreverEv,%function; _ZN6Genode13sleep_foreverEv:
.text; .global _ZN6Genode14Capability_map6insertEmm; .type _ZN6Genode14Capability_map6insertEmm,%function; _ZN6Genode14Capability_map6insertEmm:
.text; .global _ZN6Genode14Dynamic_linker23_for_each_loaded_objectERNS_3EnvERKNS0_11For_each_fnE; .type _ZN6Genode14Dynamic_linker23_for_each_loaded_objectERNS_3EnvERKNS0_11For_each_fnE,%function; _ZN6Genode14Dynamic_linker23_for_each_loaded_objectERNS_3EnvERKNS0_11For_each_fnE:
.text; .global _ZN6Genode14Dynamic_linker4keepERNS_3EnvEPKc; .type _ZN6Genode14Dynamic_linker4keepERNS_3EnvEPKc,%function; _ZN6Genode14Dynamic_linker4keepERNS_3EnvEPKc:
.text; .global _ZN6Genode14Dynamic_linker8_respawnERNS_3EnvEPKcS4_; .type _ZN6Genode14Dynamic_linker8_respawnERNS_3EnvEPKcS4_,%function; _ZN6Genode14Dynamic_linker8_respawnERNS_3EnvEPKcS4_:
.text; .global _ZN6Genode14Rpc_entrypoint13_free_rpc_capERNS_10Pd_sessionENS_17Native_capabilityE; .type _ZN6Genode14Rpc_entrypoint13_free_rpc_capERNS_10Pd_sessionENS_17Native_capabilityE,%function; _ZN6Genode14Rpc_entrypoint13_free_rpc_capERNS_10Pd_sessionENS_17Native_capabilityE:
.text; .global _ZN6Genode14Rpc_entrypoint14_alloc_rpc_capERNS_10Pd_sessionENS_17Native_capabilityEm; .type _ZN6Genode14Rpc_entrypoint14_alloc_rpc_capERNS_10Pd_sessionENS_17Native_capabilityEm,%function; _ZN6Genode14Rpc_entrypoint14_alloc_rpc_capERNS_10Pd_sessionENS_17Native_capabilityEm:
.text; .global _ZN6Genode14Rpc_entrypoint17_activation_entryEv; .type _ZN6Genode14Rpc_entrypoint17_activation_entryEv,%function; _ZN6Genode14Rpc_entrypoint17_activation_entryEv:
.text; .global _ZN6Genode14Rpc_entrypoint17reply_signal_infoENS_17Native_capabilityEmm; .type _ZN6Genode14Rpc_entrypoint17reply_signal_infoENS_17Native_capabilityEmm,%function; _ZN6Genode14Rpc_entrypoint17reply_signal_infoENS_17Native_capabilityEmm:
.text; .global _ZN6Genode14Rpc_entrypoint22_block_until_cap_validEv; .type _ZN6Genode14Rpc_entrypoint22_block_until_cap_validEv,%function; _ZN6Genode14Rpc_entrypoint22_block_until_cap_validEv:
.text; .global _ZN6Genode14Rpc_entrypoint5entryEv; .type _ZN6Genode14Rpc_entrypoint5entryEv,%function; _ZN6Genode14Rpc_entrypoint5entryEv:
.text; .global _ZN6Genode14Rpc_entrypoint7_manageEPNS_15Rpc_object_baseE; .type _ZN6Genode14Rpc_entrypoint7_manageEPNS_15Rpc_object_baseE,%function; _ZN6Genode14Rpc_entrypoint7_manageEPNS_15Rpc_object_baseE:
.text; .global _ZN6Genode14Rpc_entrypoint8activateEv; .type _ZN6Genode14Rpc_entrypoint8activateEv,%function; _ZN6Genode14Rpc_entrypoint8activateEv:
.text; .global _ZN6Genode14Rpc_entrypoint9_dissolveEPNS_15Rpc_object_baseE; .type _ZN6Genode14Rpc_entrypoint9_dissolveEPNS_15Rpc_object_baseE,%function; _ZN6Genode14Rpc_entrypoint9_dissolveEPNS_15Rpc_object_baseE:
.text; .global _ZN6Genode14Rpc_entrypointC1EPNS_10Pd_sessionEmPKcbNS_8Affinity8LocationE; .type _ZN6Genode14Rpc_entrypointC1EPNS_10Pd_sessionEmPKcbNS_8Affinity8LocationE,%function; _ZN6Genode14Rpc_entrypointC1EPNS_10Pd_sessionEmPKcbNS_8Affinity8LocationE:
.text; .global _ZN6Genode14Rpc_entrypointC2EPNS_10Pd_sessionEmPKcbNS_8Affinity8LocationE; .type _ZN6Genode14Rpc_entrypointC2EPNS_10Pd_sessionEmPKcbNS_8Affinity8LocationE,%function; _ZN6Genode14Rpc_entrypointC2EPNS_10Pd_sessionEmPKcbNS_8Affinity8LocationE:
.text; .global _ZN6Genode14Rpc_entrypointD0Ev; .type _ZN6Genode14Rpc_entrypointD0Ev,%function; _ZN6Genode14Rpc_entrypointD0Ev:
.text; .global _ZN6Genode14Rpc_entrypointD1Ev; .type _ZN6Genode14Rpc_entrypointD1Ev,%function; _ZN6Genode14Rpc_entrypointD1Ev:
.text; .global _ZN6Genode14Rpc_entrypointD2Ev; .type _ZN6Genode14Rpc_entrypointD2Ev,%function; _ZN6Genode14Rpc_entrypointD2Ev:
.text; .global _ZN6Genode14Signal_contextD0Ev; .type _ZN6Genode14Signal_contextD0Ev,%function; _ZN6Genode14Signal_contextD0Ev:
.text; .global _ZN6Genode14Signal_contextD1Ev; .type _ZN6Genode14Signal_contextD1Ev,%function; _ZN6Genode14Signal_contextD1Ev:
.text; .global _ZN6Genode14Signal_contextD2Ev; .type _ZN6Genode14Signal_contextD2Ev,%function; _ZN6Genode14Signal_contextD2Ev:
.text; .global _ZN6Genode14cache_coherentEmm; .type _ZN6Genode14cache_coherentEmm,%function; _ZN6Genode14cache_coherentEmm:
.text; .global _ZN6Genode14env_deprecatedEv; .type _ZN6Genode14env_deprecatedEv,%function; _ZN6Genode14env_deprecatedEv:
.text; .global _ZN6Genode14ipc_reply_waitERKNS_17Native_capabilityENS_18Rpc_exception_codeERNS_11Msgbuf_baseES5_; .type _ZN6Genode14ipc_reply_waitERKNS_17Native_capabilityENS_18Rpc_exception_codeERNS_11Msgbuf_baseES5_,%function; _ZN6Genode14ipc_reply_waitERKNS_17Native_capabilityENS_18Rpc_exception_codeERNS_11Msgbuf_baseES5_:
.text; .global _ZN6Genode15Alarm_scheduler12_setup_alarmERNS_5AlarmEmm; .type _ZN6Genode15Alarm_scheduler12_setup_alarmERNS_5AlarmEmm,%function; _ZN6Genode15Alarm_scheduler12_setup_alarmERNS_5AlarmEmm:
.text; .global _ZN6Genode15Alarm_scheduler13next_deadlineEPm; .type _ZN6Genode15Alarm_scheduler13next_deadlineEPm,%function; _ZN6Genode15Alarm_scheduler13next_deadlineEPm:
.text; .global _ZN6Genode15Alarm_scheduler17schedule_absoluteEPNS_5AlarmEy; .type _ZN6Genode15Alarm_scheduler17schedule_absoluteEPNS_5AlarmEy,%function; _ZN6Genode15Alarm_scheduler17schedule_absoluteEPNS_5AlarmEy:
.text; .global _ZN6Genode15Alarm_scheduler18_get_pending_alarmEv; .type _ZN6Genode15Alarm_scheduler18_get_pending_alarmEv,%function; _ZN6Genode15Alarm_scheduler18_get_pending_alarmEv:
.text; .global _ZN6Genode15Alarm_scheduler23_unsynchronized_dequeueEPNS_5AlarmE; .type _ZN6Genode15Alarm_scheduler23_unsynchronized_dequeueEPNS_5AlarmE,%function; _ZN6Genode15Alarm_scheduler23_unsynchronized_dequeueEPNS_5AlarmE:
.text; .global _ZN6Genode15Alarm_scheduler23_unsynchronized_enqueueEPNS_5AlarmE; .type _ZN6Genode15Alarm_scheduler23_unsynchronized_enqueueEPNS_5AlarmE,%function; _ZN6Genode15Alarm_scheduler23_unsynchronized_enqueueEPNS_5AlarmE:
.text; .global _ZN6Genode15Alarm_scheduler6handleEy; .type _ZN6Genode15Alarm_scheduler6handleEy,%function; _ZN6Genode15Alarm_scheduler6handleEy:
.text; .global _ZN6Genode15Alarm_scheduler7discardEPNS_5AlarmE; .type _ZN6Genode15Alarm_scheduler7discardEPNS_5AlarmE,%function; _ZN6Genode15Alarm_scheduler7discardEPNS_5AlarmE:
.text; .global _ZN6Genode15Alarm_scheduler8scheduleEPNS_5AlarmEm; .type _ZN6Genode15Alarm_scheduler8scheduleEPNS_5AlarmEm,%function; _ZN6Genode15Alarm_scheduler8scheduleEPNS_5AlarmEm:
.text; .global _ZN6Genode15Alarm_schedulerD1Ev; .type _ZN6Genode15Alarm_schedulerD1Ev,%function; _ZN6Genode15Alarm_schedulerD1Ev:
.text; .global _ZN6Genode15Alarm_schedulerD2Ev; .type _ZN6Genode15Alarm_schedulerD2Ev,%function; _ZN6Genode15Alarm_schedulerD2Ev:
.text; .global _ZN6Genode15Cancelable_lock4lockEv; .type _ZN6Genode15Cancelable_lock4lockEv,%function; _ZN6Genode15Cancelable_lock4lockEv:
.text; .global _ZN6Genode15Cancelable_lock6unlockEv; .type _ZN6Genode15Cancelable_lock6unlockEv,%function; _ZN6Genode15Cancelable_lock6unlockEv:
.text; .global _ZN6Genode15Cancelable_lock9Applicant7wake_upEv; .type _ZN6Genode15Cancelable_lock9Applicant7wake_upEv,%function; _ZN6Genode15Cancelable_lock9Applicant7wake_upEv:
.text; .global _ZN6Genode15Cancelable_lockC1ENS0_5StateE; .type _ZN6Genode15Cancelable_lockC1ENS0_5StateE,%function; _ZN6Genode15Cancelable_lockC1ENS0_5StateE:
.text; .global _ZN6Genode15Cancelable_lockC2ENS0_5StateE; .type _ZN6Genode15Cancelable_lockC2ENS0_5StateE,%function; _ZN6Genode15Cancelable_lockC2ENS0_5StateE:
.text; .global _ZN6Genode15Connection_baseC1Ev; .type _ZN6Genode15Connection_baseC1Ev,%function; _ZN6Genode15Connection_baseC1Ev:
.text; .global _ZN6Genode15Connection_baseC2Ev; .type _ZN6Genode15Connection_baseC2Ev,%function; _ZN6Genode15Connection_baseC2Ev:
.text; .global _ZN6Genode15Signal_receiver12local_submitENS_6Signal4DataE; .type _ZN6Genode15Signal_receiver12local_submitENS_6Signal4DataE,%function; _ZN6Genode15Signal_receiver12local_submitENS_6Signal4DataE:
.text; .global _ZN6Genode15Signal_receiver14pending_signalEv; .type _ZN6Genode15Signal_receiver14pending_signalEv,%function; _ZN6Genode15Signal_receiver14pending_signalEv:
.text; .global _ZN6Genode15Signal_receiver15wait_for_signalEv; .type _ZN6Genode15Signal_receiver15wait_for_signalEv,%function; _ZN6Genode15Signal_receiver15wait_for_signalEv:
.text; .global _ZN6Genode15Signal_receiver16block_for_signalEv; .type _ZN6Genode15Signal_receiver16block_for_signalEv,%function; _ZN6Genode15Signal_receiver16block_for_signalEv:
.text; .global _ZN6Genode15Signal_receiver6manageEPNS_14Signal_contextE; .type _ZN6Genode15Signal_receiver6manageEPNS_14Signal_contextE,%function; _ZN6Genode15Signal_receiver6manageEPNS_14Signal_contextE:
.text; .global _ZN6Genode15Signal_receiver8dissolveEPNS_14Signal_contextE; .type _ZN6Genode15Signal_receiver8dissolveEPNS_14Signal_contextE,%function; _ZN6Genode15Signal_receiver8dissolveEPNS_14Signal_contextE:
.text; .global _ZN6Genode15Signal_receiverC1Ev; .type _ZN6Genode15Signal_receiverC1Ev,%function; _ZN6Genode15Signal_receiverC1Ev:
.text; .global _ZN6Genode15Signal_receiverC2Ev; .type _ZN6Genode15Signal_receiverC2Ev,%function; _ZN6Genode15Signal_receiverC2Ev:
.text; .global _ZN6Genode15Signal_receiverD1Ev; .type _ZN6Genode15Signal_receiverD1Ev,%function; _ZN6Genode15Signal_receiverD1Ev:
.text; .global _ZN6Genode15Signal_receiverD2Ev; .type _ZN6Genode15Signal_receiverD2Ev,%function; _ZN6Genode15Signal_receiverD2Ev:
.text; .global _ZN6Genode16raw_write_stringEPKc; .type _ZN6Genode16raw_write_stringEPKc,%function; _ZN6Genode16raw_write_stringEPKc:
.text; .global _ZN6Genode17Native_capability4_decEv; .type _ZN6Genode17Native_capability4_decEv,%function; _ZN6Genode17Native_capability4_decEv:
.text; .global _ZN6Genode17Native_capability4_incEv; .type _ZN6Genode17Native_capability4_incEv,%function; _ZN6Genode17Native_capability4_incEv:
.text; .global _ZN6Genode17Native_capabilityC1Ev; .type _ZN6Genode17Native_capabilityC1Ev,%function; _ZN6Genode17Native_capabilityC1Ev:
.text; .global _ZN6Genode17Native_capabilityC2Ev; .type _ZN6Genode17Native_capabilityC2Ev,%function; _ZN6Genode17Native_capabilityC2Ev:
.text; .global _ZN6Genode17Region_map_client13fault_handlerENS_10CapabilityINS_14Signal_contextEEE; .type _ZN6Genode17Region_map_client13fault_handlerENS_10CapabilityINS_14Signal_contextEEE,%function; _ZN6Genode17Region_map_client13fault_handlerENS_10CapabilityINS_14Signal_contextEEE:
.text; .global _ZN6Genode17Region_map_client5stateEv; .type _ZN6Genode17Region_map_client5stateEv,%function; _ZN6Genode17Region_map_client5stateEv:
.text; .global _ZN6Genode17Region_map_client6attachENS_10CapabilityINS_9DataspaceEEEmlbNS_10Region_map10Local_addrEbb; .type _ZN6Genode17Region_map_client6attachENS_10CapabilityINS_9DataspaceEEEmlbNS_10Region_map10Local_addrEbb,%function; _ZN6Genode17Region_map_client6attachENS_10CapabilityINS_9DataspaceEEEmlbNS_10Region_map10Local_addrEbb:
.text; .global _ZN6Genode17Region_map_client6detachENS_10Region_map10Local_addrE; .type _ZN6Genode17Region_map_client6detachENS_10Region_map10Local_addrE,%function; _ZN6Genode17Region_map_client6detachENS_10Region_map10Local_addrE:
.text; .global _ZN6Genode17Region_map_client9dataspaceEv; .type _ZN6Genode17Region_map_client9dataspaceEv,%function; _ZN6Genode17Region_map_client9dataspaceEv:
.text; .global _ZN6Genode17Region_map_clientC1ENS_10CapabilityINS_10Region_mapEEE; .type _ZN6Genode17Region_map_clientC1ENS_10CapabilityINS_10Region_mapEEE,%function; _ZN6Genode17Region_map_clientC1ENS_10CapabilityINS_10Region_mapEEE:
.text; .global _ZN6Genode17Region_map_clientC2ENS_10CapabilityINS_10Region_mapEEE; .type _ZN6Genode17Region_map_clientC2ENS_10CapabilityINS_10Region_mapEEE,%function; _ZN6Genode17Region_map_clientC2ENS_10CapabilityINS_10Region_mapEEE:
.text; .global _ZN6Genode17Rm_session_client6createEm; .type _ZN6Genode17Rm_session_client6createEm,%function; _ZN6Genode17Rm_session_client6createEm:
.text; .global _ZN6Genode17Rm_session_client7destroyENS_10CapabilityINS_10Region_mapEEE; .type _ZN6Genode17Rm_session_client7destroyENS_10CapabilityINS_10Region_mapEEE,%function; _ZN6Genode17Rm_session_client7destroyENS_10CapabilityINS_10Region_mapEEE:
.text; .global _ZN6Genode17Rm_session_clientC1ENS_10CapabilityINS_10Rm_sessionEEE; .type _ZN6Genode17Rm_session_clientC1ENS_10CapabilityINS_10Rm_sessionEEE,%function; _ZN6Genode17Rm_session_clientC1ENS_10CapabilityINS_10Rm_sessionEEE:
.text; .global _ZN6Genode17Rm_session_clientC2ENS_10CapabilityINS_10Rm_sessionEEE; .type _ZN6Genode17Rm_session_clientC2ENS_10CapabilityINS_10Rm_sessionEEE,%function; _ZN6Genode17Rm_session_clientC2ENS_10CapabilityINS_10Rm_sessionEEE:
.text; .global _ZN6Genode17Vm_session_client11create_vcpuERNS_9AllocatorERNS_3EnvERNS_15Vm_handler_baseE; .type _ZN6Genode17Vm_session_client11create_vcpuERNS_9AllocatorERNS_3EnvERNS_15Vm_handler_baseE,%function; _ZN6Genode17Vm_session_client11create_vcpuERNS_9AllocatorERNS_3EnvERNS_15Vm_handler_baseE:
.text; .global _ZN6Genode17Vm_session_client3runENS_10Vm_session7Vcpu_idE; .type _ZN6Genode17Vm_session_client3runENS_10Vm_session7Vcpu_idE,%function; _ZN6Genode17Vm_session_client3runENS_10Vm_session7Vcpu_idE:
.text; .global _ZN6Genode17Vm_session_client5pauseENS_10Vm_session7Vcpu_idE; .type _ZN6Genode17Vm_session_client5pauseENS_10Vm_session7Vcpu_idE,%function; _ZN6Genode17Vm_session_client5pauseENS_10Vm_session7Vcpu_idE:
.text; .global _ZN6Genode17Vm_session_client9cpu_stateENS_10Vm_session7Vcpu_idE; .type _ZN6Genode17Vm_session_client9cpu_stateENS_10Vm_session7Vcpu_idE,%function; _ZN6Genode17Vm_session_client9cpu_stateENS_10Vm_session7Vcpu_idE:
.text; .global _ZN6Genode18Allocator_avl_base10_add_blockEPNS0_5BlockEmmb; .type _ZN6Genode18Allocator_avl_base10_add_blockEPNS0_5BlockEmmb,%function; _ZN6Genode18Allocator_avl_base10_add_blockEPNS0_5BlockEmmb:
.text; .global _ZN6Genode18Allocator_avl_base10alloc_addrEmm; .type _ZN6Genode18Allocator_avl_base10alloc_addrEmm,%function; _ZN6Genode18Allocator_avl_base10alloc_addrEmm:
.text; .global _ZN6Genode18Allocator_avl_base12remove_rangeEmm; .type _ZN6Genode18Allocator_avl_base12remove_rangeEmm,%function; _ZN6Genode18Allocator_avl_base12remove_rangeEmm:
.text; .global _ZN6Genode18Allocator_avl_base13alloc_alignedEmPPvimm; .type _ZN6Genode18Allocator_avl_base13alloc_alignedEmPPvimm,%function; _ZN6Genode18Allocator_avl_base13alloc_alignedEmPPvimm:
.text; .global _ZN6Genode18Allocator_avl_base14_destroy_blockEPNS0_5BlockE; .type _ZN6Genode18Allocator_avl_base14_destroy_blockEPNS0_5BlockE,%function; _ZN6Genode18Allocator_avl_base14_destroy_blockEPNS0_5BlockE:
.text; .global _ZN6Genode18Allocator_avl_base14any_block_addrEPm; .type _ZN6Genode18Allocator_avl_base14any_block_addrEPm,%function; _ZN6Genode18Allocator_avl_base14any_block_addrEPm:
.text; .global _ZN6Genode18Allocator_avl_base15_cut_from_blockEPNS0_5BlockEmmS2_S2_; .type _ZN6Genode18Allocator_avl_base15_cut_from_blockEPNS0_5BlockEmmS2_S2_,%function; _ZN6Genode18Allocator_avl_base15_cut_from_blockEPNS0_5BlockEmmS2_S2_:
.text; .global _ZN6Genode18Allocator_avl_base20_find_any_used_blockEPNS0_5BlockE; .type _ZN6Genode18Allocator_avl_base20_find_any_used_blockEPNS0_5BlockE,%function; _ZN6Genode18Allocator_avl_base20_find_any_used_blockEPNS0_5BlockE:
.text; .global _ZN6Genode18Allocator_avl_base21_alloc_block_metadataEv; .type _ZN6Genode18Allocator_avl_base21_alloc_block_metadataEv,%function; _ZN6Genode18Allocator_avl_base21_alloc_block_metadataEv:
.text; .global _ZN6Genode18Allocator_avl_base26_alloc_two_blocks_metadataEPPNS0_5BlockES3_; .type _ZN6Genode18Allocator_avl_base26_alloc_two_blocks_metadataEPPNS0_5BlockES3_,%function; _ZN6Genode18Allocator_avl_base26_alloc_two_blocks_metadataEPPNS0_5BlockES3_:
.text; .global _ZN6Genode18Allocator_avl_base30_revert_allocations_and_rangesEv; .type _ZN6Genode18Allocator_avl_base30_revert_allocations_and_rangesEv,%function; _ZN6Genode18Allocator_avl_base30_revert_allocations_and_rangesEv:
.text; .global _ZN6Genode18Allocator_avl_base4freeEPv; .type _ZN6Genode18Allocator_avl_base4freeEPv,%function; _ZN6Genode18Allocator_avl_base4freeEPv:
.text; .global _ZN6Genode18Allocator_avl_base5Block13find_best_fitEmjmm; .type _ZN6Genode18Allocator_avl_base5Block13find_best_fitEmjmm,%function; _ZN6Genode18Allocator_avl_base5Block13find_best_fitEmjmm:
.text; .global _ZN6Genode18Allocator_avl_base5Block15find_by_addressEmmb; .type _ZN6Genode18Allocator_avl_base5Block15find_by_addressEmmb,%function; _ZN6Genode18Allocator_avl_base5Block15find_by_addressEmmb:
.text; .global _ZN6Genode18Allocator_avl_base5Block16avail_in_subtreeEv; .type _ZN6Genode18Allocator_avl_base5Block16avail_in_subtreeEv,%function; _ZN6Genode18Allocator_avl_base5Block16avail_in_subtreeEv:
.text; .global _ZN6Genode18Allocator_avl_base5Block9recomputeEv; .type _ZN6Genode18Allocator_avl_base5Block9recomputeEv,%function; _ZN6Genode18Allocator_avl_base5Block9recomputeEv:
.text; .global _ZN6Genode18Allocator_avl_base9add_rangeEmm; .type _ZN6Genode18Allocator_avl_base9add_rangeEmm,%function; _ZN6Genode18Allocator_avl_base9add_rangeEmm:
.text; .global _ZN6Genode18Signal_transmitter6submitEj; .type _ZN6Genode18Signal_transmitter6submitEj,%function; _ZN6Genode18Signal_transmitter6submitEj:
.text; .global _ZN6Genode18Signal_transmitter7contextENS_10CapabilityINS_14Signal_contextEEE; .type _ZN6Genode18Signal_transmitter7contextENS_10CapabilityINS_14Signal_contextEEE,%function; _ZN6Genode18Signal_transmitter7contextENS_10CapabilityINS_14Signal_contextEEE:
.text; .global _ZN6Genode18Signal_transmitter7contextEv; .type _ZN6Genode18Signal_transmitter7contextEv,%function; _ZN6Genode18Signal_transmitter7contextEv:
.text; .global _ZN6Genode18Signal_transmitterC1ENS_10CapabilityINS_14Signal_contextEEE; .type _ZN6Genode18Signal_transmitterC1ENS_10CapabilityINS_14Signal_contextEEE,%function; _ZN6Genode18Signal_transmitterC1ENS_10CapabilityINS_14Signal_contextEEE:
.text; .global _ZN6Genode18Signal_transmitterC2ENS_10CapabilityINS_14Signal_contextEEE; .type _ZN6Genode18Signal_transmitterC2ENS_10CapabilityINS_14Signal_contextEEE,%function; _ZN6Genode18Signal_transmitterC2ENS_10CapabilityINS_14Signal_contextEEE:
.text; .global _ZN6Genode18server_socket_pairEv; .type _ZN6Genode18server_socket_pairEv,%function; _ZN6Genode18server_socket_pairEv:
.text; .global _ZN6Genode20env_session_id_spaceEv; .type _ZN6Genode20env_session_id_spaceEv,%function; _ZN6Genode20env_session_id_spaceEv:
.text; .global _ZN6Genode23Alarm_timeout_scheduler14handle_timeoutENS_8DurationE; .type _ZN6Genode23Alarm_timeout_scheduler14handle_timeoutENS_8DurationE,%function; _ZN6Genode23Alarm_timeout_scheduler14handle_timeoutENS_8DurationE:
.text; .global _ZN6Genode23Alarm_timeout_scheduler18_schedule_one_shotERNS_7TimeoutENS_12MicrosecondsE; .type _ZN6Genode23Alarm_timeout_scheduler18_schedule_one_shotERNS_7TimeoutENS_12MicrosecondsE,%function; _ZN6Genode23Alarm_timeout_scheduler18_schedule_one_shotERNS_7TimeoutENS_12MicrosecondsE:
.text; .global _ZN6Genode23Alarm_timeout_scheduler18_schedule_periodicERNS_7TimeoutENS_12MicrosecondsE; .type _ZN6Genode23Alarm_timeout_scheduler18_schedule_periodicERNS_7TimeoutENS_12MicrosecondsE,%function; _ZN6Genode23Alarm_timeout_scheduler18_schedule_periodicERNS_7TimeoutENS_12MicrosecondsE:
.text; .global _ZN6Genode23Alarm_timeout_scheduler7_enableEv; .type _ZN6Genode23Alarm_timeout_scheduler7_enableEv,%function; _ZN6Genode23Alarm_timeout_scheduler7_enableEv:
.text; .global _ZN6Genode23Alarm_timeout_schedulerC1ERNS_11Time_sourceENS_12MicrosecondsE; .type _ZN6Genode23Alarm_timeout_schedulerC1ERNS_11Time_sourceENS_12MicrosecondsE,%function; _ZN6Genode23Alarm_timeout_schedulerC1ERNS_11Time_sourceENS_12MicrosecondsE:
.text; .global _ZN6Genode23Alarm_timeout_schedulerC2ERNS_11Time_sourceENS_12MicrosecondsE; .type _ZN6Genode23Alarm_timeout_schedulerC2ERNS_11Time_sourceENS_12MicrosecondsE,%function; _ZN6Genode23Alarm_timeout_schedulerC2ERNS_11Time_sourceENS_12MicrosecondsE:
.text; .global _ZN6Genode23Alarm_timeout_schedulerD0Ev; .type _ZN6Genode23Alarm_timeout_schedulerD0Ev,%function; _ZN6Genode23Alarm_timeout_schedulerD0Ev:
.text; .global _ZN6Genode23Alarm_timeout_schedulerD1Ev; .type _ZN6Genode23Alarm_timeout_schedulerD1Ev,%function; _ZN6Genode23Alarm_timeout_schedulerD1Ev:
.text; .global _ZN6Genode23Alarm_timeout_schedulerD2Ev; .type _ZN6Genode23Alarm_timeout_schedulerD2Ev,%function; _ZN6Genode23Alarm_timeout_schedulerD2Ev:
.bss; .global _ZN6Genode25env_stack_area_region_mapE; .type _ZN6Genode25env_stack_area_region_mapE,%object; .size _ZN6Genode25env_stack_area_region_mapE,8; _ZN6Genode25env_stack_area_region_mapE:
.bss; .global _ZN6Genode28env_stack_area_ram_allocatorE; .type _ZN6Genode28env_stack_area_ram_allocatorE,%object; .size _ZN6Genode28env_stack_area_ram_allocatorE,8; _ZN6Genode28env_stack_area_ram_allocatorE:
.text; .global _ZN6Genode3Log3logEv; .type _ZN6Genode3Log3logEv,%function; _ZN6Genode3Log3logEv:
.text; .global _ZN6Genode3Log8_acquireENS0_4TypeE; .type _ZN6Genode3Log8_acquireENS0_4TypeE,%function; _ZN6Genode3Log8_acquireENS0_4TypeE:
.text; .global _ZN6Genode3Log8_releaseEv; .type _ZN6Genode3Log8_releaseEv,%function; _ZN6Genode3Log8_releaseEv:
.text; .global _ZN6Genode3Raw7_outputEv; .type _ZN6Genode3Raw7_outputEv,%function; _ZN6Genode3Raw7_outputEv:
.text; .global _ZN6Genode3Raw8_acquireEv; .type _ZN6Genode3Raw8_acquireEv,%function; _ZN6Genode3Raw8_acquireEv:
.text; .global _ZN6Genode3Raw8_releaseEv; .type _ZN6Genode3Raw8_releaseEv,%function; _ZN6Genode3Raw8_releaseEv:
.text; .global _ZN6Genode4Heap11quota_limitEm; .type _ZN6Genode4Heap11quota_limitEm,%function; _ZN6Genode4Heap11quota_limitEm:
.text; .global _ZN6Genode4Heap4freeEPvm; .type _ZN6Genode4Heap4freeEPvm,%function; _ZN6Genode4Heap4freeEPvm:
.text; .global _ZN6Genode4Heap5allocEmPPv; .type _ZN6Genode4Heap5allocEmPPv,%function; _ZN6Genode4Heap5allocEmPPv:
.text; .global _ZN6Genode4HeapC1EPNS_13Ram_allocatorEPNS_10Region_mapEmPvm; .type _ZN6Genode4HeapC1EPNS_13Ram_allocatorEPNS_10Region_mapEmPvm,%function; _ZN6Genode4HeapC1EPNS_13Ram_allocatorEPNS_10Region_mapEmPvm:
.text; .global _ZN6Genode4HeapC2EPNS_13Ram_allocatorEPNS_10Region_mapEmPvm; .type _ZN6Genode4HeapC2EPNS_13Ram_allocatorEPNS_10Region_mapEmPvm,%function; _ZN6Genode4HeapC2EPNS_13Ram_allocatorEPNS_10Region_mapEmPvm:
.text; .global _ZN6Genode4HeapD0Ev; .type _ZN6Genode4HeapD0Ev,%function; _ZN6Genode4HeapD0Ev:
.text; .global _ZN6Genode4HeapD1Ev; .type _ZN6Genode4HeapD1Ev,%function; _ZN6Genode4HeapD1Ev:
.text; .global _ZN6Genode4HeapD2Ev; .type _ZN6Genode4HeapD2Ev,%function; _ZN6Genode4HeapD2Ev:
.text; .global _ZN6Genode4Slab13any_used_elemEv; .type _ZN6Genode4Slab13any_used_elemEv,%function; _ZN6Genode4Slab13any_used_elemEv:
.text; .global _ZN6Genode4Slab5Block11_slab_entryEi; .type _ZN6Genode4Slab5Block11_slab_entryEi,%function; _ZN6Genode4Slab5Block11_slab_entryEi:
.text; .global _ZN6Genode4Slab5Block14any_used_entryEv; .type _ZN6Genode4Slab5Block14any_used_entryEv,%function; _ZN6Genode4Slab5Block14any_used_entryEv:
.text; .global _ZN6Genode4Slab5Block5allocEv; .type _ZN6Genode4Slab5Block5allocEv,%function; _ZN6Genode4Slab5Block5allocEv:
.text; .global _ZN6Genode4Slab5Block9inc_availERNS0_5EntryE; .type _ZN6Genode4Slab5Block9inc_availERNS0_5EntryE,%function; _ZN6Genode4Slab5Block9inc_availERNS0_5EntryE:
.text; .global _ZN6Genode4Slab5_freeEPv; .type _ZN6Genode4Slab5_freeEPv,%function; _ZN6Genode4Slab5_freeEPv:
.text; .global _ZN6Genode4Slab5allocEmPPv; .type _ZN6Genode4Slab5allocEmPPv,%function; _ZN6Genode4Slab5allocEmPPv:
.text; .global _ZN6Genode4Slab9insert_sbEPv; .type _ZN6Genode4Slab9insert_sbEPv,%function; _ZN6Genode4Slab9insert_sbEPv:
.text; .global _ZN6Genode4SlabC1EmmPvPNS_9AllocatorE; .type _ZN6Genode4SlabC1EmmPvPNS_9AllocatorE,%function; _ZN6Genode4SlabC1EmmPvPNS_9AllocatorE:
.text; .global _ZN6Genode4SlabC2EmmPvPNS_9AllocatorE; .type _ZN6Genode4SlabC2EmmPvPNS_9AllocatorE,%function; _ZN6Genode4SlabC2EmmPvPNS_9AllocatorE:
.text; .global _ZN6Genode4SlabD0Ev; .type _ZN6Genode4SlabD0Ev,%function; _ZN6Genode4SlabD0Ev:
.text; .global _ZN6Genode4SlabD1Ev; .type _ZN6Genode4SlabD1Ev,%function; _ZN6Genode4SlabD1Ev:
.text; .global _ZN6Genode4SlabD2Ev; .type _ZN6Genode4SlabD2Ev,%function; _ZN6Genode4SlabD2Ev:
.text; .global _ZN6Genode5AlarmD0Ev; .type _ZN6Genode5AlarmD0Ev,%function; _ZN6Genode5AlarmD0Ev:
.text; .global _ZN6Genode5AlarmD1Ev; .type _ZN6Genode5AlarmD1Ev,%function; _ZN6Genode5AlarmD1Ev:
.text; .global _ZN6Genode5AlarmD2Ev; .type _ZN6Genode5AlarmD2Ev,%function; _ZN6Genode5AlarmD2Ev:
.text; .global _ZN6Genode5Child10yield_sighENS_10CapabilityINS_14Signal_contextEEE; .type _ZN6Genode5Child10yield_sighENS_10CapabilityINS_14Signal_contextEEE,%function; _ZN6Genode5Child10yield_sighENS_10CapabilityINS_14Signal_contextEEE:
.text; .global _ZN6Genode5Child11session_capENS_8Id_spaceINS_6Parent6ClientEE2IdE; .type _ZN6Genode5Child11session_capENS_8Id_spaceINS_6Parent6ClientEE2IdE,%function; _ZN6Genode5Child11session_capENS_8Id_spaceINS_6Parent6ClientEE2IdE:
.text; .global _ZN6Genode5Child12session_sighENS_10CapabilityINS_14Signal_contextEEE; .type _ZN6Genode5Child12session_sighENS_10CapabilityINS_14Signal_contextEEE,%function; _ZN6Genode5Child12session_sighENS_10CapabilityINS_14Signal_contextEEE:
.text; .global _ZN6Genode5Child13session_readyERNS_13Session_stateE; .type _ZN6Genode5Child13session_readyERNS_13Session_stateE,%function; _ZN6Genode5Child13session_readyERNS_13Session_stateE:
.text; .global _ZN6Genode5Child13yield_requestEv; .type _ZN6Genode5Child13yield_requestEv,%function; _ZN6Genode5Child13yield_requestEv:
.text; .global _ZN6Genode5Child14session_closedERNS_13Session_stateE; .type _ZN6Genode5Child14session_closedERNS_13Session_stateE,%function; _ZN6Genode5Child14session_closedERNS_13Session_stateE:
.text; .global _ZN6Genode5Child14yield_responseEv; .type _ZN6Genode5Child14yield_responseEv,%function; _ZN6Genode5Child14yield_responseEv:
.text; .global _ZN6Genode5Child16resource_requestERKNS_6StringILm160EEE; .type _ZN6Genode5Child16resource_requestERKNS_6StringILm160EEE,%function; _ZN6Genode5Child16resource_requestERKNS_6StringILm160EEE:
.text; .global _ZN6Genode5Child16session_responseENS_8Id_spaceINS_6Parent6ServerEE2IdENS2_16Session_responseE; .type _ZN6Genode5Child16session_responseENS_8Id_spaceINS_6Parent6ServerEE2IdENS2_16Session_responseE,%function; _ZN6Genode5Child16session_responseENS_8Id_spaceINS_6Parent6ServerEE2IdENS2_16Session_responseE:
.text; .global _ZN6Genode5Child18close_all_sessionsEv; .type _ZN6Genode5Child18close_all_sessionsEv,%function; _ZN6Genode5Child18close_all_sessionsEv:
.text; .global _ZN6Genode5Child19deliver_session_capENS_8Id_spaceINS_6Parent6ServerEE2IdENS_10CapabilityINS_7SessionEEE; .type _ZN6Genode5Child19deliver_session_capENS_8Id_spaceINS_6Parent6ServerEE2IdENS_10CapabilityINS_7SessionEEE,%function; _ZN6Genode5Child19deliver_session_capENS_8Id_spaceINS_6Parent6ServerEE2IdENS_10CapabilityINS_7SessionEEE:
.text; .global _ZN6Genode5Child19resource_avail_sighENS_10CapabilityINS_14Signal_contextEEE; .type _ZN6Genode5Child19resource_avail_sighENS_10CapabilityINS_14Signal_contextEEE,%function; _ZN6Genode5Child19resource_avail_sighENS_10CapabilityINS_14Signal_contextEEE:
.text; .global _ZN6Genode5Child21initiate_env_sessionsEv; .type _ZN6Genode5Child21initiate_env_sessionsEv,%function; _ZN6Genode5Child21initiate_env_sessionsEv:
.text; .global _ZN6Genode5Child23initiate_env_pd_sessionEv; .type _ZN6Genode5Child23initiate_env_pd_sessionEv,%function; _ZN6Genode5Child23initiate_env_pd_sessionEv:
.text; .global _ZN6Genode5Child4exitEi; .type _ZN6Genode5Child4exitEi,%function; _ZN6Genode5Child4exitEi:
.text; .global _ZN6Genode5Child5closeENS_8Id_spaceINS_6Parent6ClientEE2IdE; .type _ZN6Genode5Child5closeENS_8Id_spaceINS_6Parent6ClientEE2IdE,%function; _ZN6Genode5Child5closeENS_8Id_spaceINS_6Parent6ClientEE2IdE:
.text; .global _ZN6Genode5Child5yieldERKNS_6StringILm160EEE; .type _ZN6Genode5Child5yieldERKNS_6StringILm160EEE,%function; _ZN6Genode5Child5yieldERKNS_6StringILm160EEE:
.text; .global _ZN6Genode5Child7sessionENS_8Id_spaceINS_6Parent6ClientEE2IdERKNS_13Rpc_in_bufferILm64EEERKNS6_ILm160EEERKNS_8AffinityE; .type _ZN6Genode5Child7sessionENS_8Id_spaceINS_6Parent6ClientEE2IdERKNS_13Rpc_in_bufferILm64EEERKNS6_ILm160EEERKNS_8AffinityE,%function; _ZN6Genode5Child7sessionENS_8Id_spaceINS_6Parent6ClientEE2IdERKNS_13Rpc_in_bufferILm64EEERKNS6_ILm160EEERKNS_8AffinityE:
.text; .global _ZN6Genode5Child7upgradeENS_8Id_spaceINS_6Parent6ClientEE2IdERKNS_13Rpc_in_bufferILm160EEE; .type _ZN6Genode5Child7upgradeENS_8Id_spaceINS_6Parent6ClientEE2IdERKNS_13Rpc_in_bufferILm160EEE,%function; _ZN6Genode5Child7upgradeENS_8Id_spaceINS_6Parent6ClientEE2IdERKNS_13Rpc_in_bufferILm160EEE:
.text; .global _ZN6Genode5Child8announceERKNS_13Rpc_in_bufferILm64EEE; .type _ZN6Genode5Child8announceERKNS_13Rpc_in_bufferILm64EEE,%function; _ZN6Genode5Child8announceERKNS_13Rpc_in_bufferILm64EEE:
.text; .global _ZN6Genode5Child9heartbeatEv; .type _ZN6Genode5Child9heartbeatEv,%function; _ZN6Genode5Child9heartbeatEv:
.text; .global _ZN6Genode5ChildC1ERNS_10Region_mapERNS_14Rpc_entrypointERNS_12Child_policyE; .type _ZN6Genode5ChildC1ERNS_10Region_mapERNS_14Rpc_entrypointERNS_12Child_policyE,%function; _ZN6Genode5ChildC1ERNS_10Region_mapERNS_14Rpc_entrypointERNS_12Child_policyE:
.text; .global _ZN6Genode5ChildC2ERNS_10Region_mapERNS_14Rpc_entrypointERNS_12Child_policyE; .type _ZN6Genode5ChildC2ERNS_10Region_mapERNS_14Rpc_entrypointERNS_12Child_policyE,%function; _ZN6Genode5ChildC2ERNS_10Region_mapERNS_14Rpc_entrypointERNS_12Child_policyE:
.text; .global _ZN6Genode5ChildD0Ev; .type _ZN6Genode5ChildD0Ev,%function; _ZN6Genode5ChildD0Ev:
.text; .global _ZN6Genode5ChildD1Ev; .type _ZN6Genode5ChildD1Ev,%function; _ZN6Genode5ChildD1Ev:
.text; .global _ZN6Genode5ChildD2Ev; .type _ZN6Genode5ChildD2Ev,%function; _ZN6Genode5ChildD2Ev:
.text; .global _ZN6Genode5Mutex7acquireEv; .type _ZN6Genode5Mutex7acquireEv,%function; _ZN6Genode5Mutex7acquireEv:
.text; .global _ZN6Genode5Mutex7releaseEv; .type _ZN6Genode5Mutex7releaseEv,%function; _ZN6Genode5Mutex7releaseEv:
.text; .global _ZN6Genode5Stack4sizeEm; .type _ZN6Genode5Stack4sizeEm,%function; _ZN6Genode5Stack4sizeEm:
.text; .global _ZN6Genode5Trace6Logger17_evaluate_controlEv; .type _ZN6Genode5Trace6Logger17_evaluate_controlEv,%function; _ZN6Genode5Trace6Logger17_evaluate_controlEv:
.text; .global _ZN6Genode5Trace6Logger3logEPKcm; .type _ZN6Genode5Trace6Logger3logEPKcm,%function; _ZN6Genode5Trace6Logger3logEPKcm:
.text; .global _ZN6Genode5Trace6LoggerC1Ev; .type _ZN6Genode5Trace6LoggerC1Ev,%function; _ZN6Genode5Trace6LoggerC1Ev:
.text; .global _ZN6Genode5Trace6LoggerC2Ev; .type _ZN6Genode5Trace6LoggerC2Ev,%function; _ZN6Genode5Trace6LoggerC2Ev:
.text; .global _ZN6Genode5printERNS_6OutputEPKc; .type _ZN6Genode5printERNS_6OutputEPKc,%function; _ZN6Genode5printERNS_6OutputEPKc:
.text; .global _ZN6Genode5printERNS_6OutputEPKv; .type _ZN6Genode5printERNS_6OutputEPKv,%function; _ZN6Genode5printERNS_6OutputEPKv:
.text; .global _ZN6Genode5printERNS_6OutputEd; .type _ZN6Genode5printERNS_6OutputEd,%function; _ZN6Genode5printERNS_6OutputEd:
.text; .global _ZN6Genode5printERNS_6OutputEf; .type _ZN6Genode5printERNS_6OutputEf,%function; _ZN6Genode5printERNS_6OutputEf:
.text; .global _ZN6Genode5printERNS_6OutputEl; .type _ZN6Genode5printERNS_6OutputEl,%function; _ZN6Genode5printERNS_6OutputEl:
.text; .global _ZN6Genode5printERNS_6OutputEm; .type _ZN6Genode5printERNS_6OutputEm,%function; _ZN6Genode5printERNS_6OutputEm:
.text; .global _ZN6Genode5printERNS_6OutputEx; .type _ZN6Genode5printERNS_6OutputEx,%function; _ZN6Genode5printERNS_6OutputEx:
.text; .global _ZN6Genode5printERNS_6OutputEy; .type _ZN6Genode5printERNS_6OutputEy,%function; _ZN6Genode5printERNS_6OutputEy:
.text; .global _ZN6Genode6Output10out_stringEPKcm; .type _ZN6Genode6Output10out_stringEPKcm,%function; _ZN6Genode6Output10out_stringEPKcm:
.text; .global _ZN6Genode6Parent8announceERKNS_13Rpc_in_bufferILm64EEENS_10CapabilityINS_4RootEEE; .type _ZN6Genode6Parent8announceERKNS_13Rpc_in_bufferILm64EEENS_10CapabilityINS_4RootEEE,%function; _ZN6Genode6Parent8announceERKNS_13Rpc_in_bufferILm64EEENS_10CapabilityINS_4RootEEE:
.text; .global _ZN6Genode6Signal19_dec_ref_and_unlockEv; .type _ZN6Genode6Signal19_dec_ref_and_unlockEv,%function; _ZN6Genode6Signal19_dec_ref_and_unlockEv:
.text; .global _ZN6Genode6Signal8_inc_refEv; .type _ZN6Genode6Signal8_inc_refEv,%function; _ZN6Genode6Signal8_inc_refEv:
.text; .global _ZN6Genode6SignalC1ENS0_4DataE; .type _ZN6Genode6SignalC1ENS0_4DataE,%function; _ZN6Genode6SignalC1ENS0_4DataE:
.text; .global _ZN6Genode6SignalC1ERKS0_; .type _ZN6Genode6SignalC1ERKS0_,%function; _ZN6Genode6SignalC1ERKS0_:
.text; .global _ZN6Genode6SignalC2ENS0_4DataE; .type _ZN6Genode6SignalC2ENS0_4DataE,%function; _ZN6Genode6SignalC2ENS0_4DataE:
.text; .global _ZN6Genode6SignalC2ERKS0_; .type _ZN6Genode6SignalC2ERKS0_,%function; _ZN6Genode6SignalC2ERKS0_:
.text; .global _ZN6Genode6SignalD1Ev; .type _ZN6Genode6SignalD1Ev,%function; _ZN6Genode6SignalD1Ev:
.text; .global _ZN6Genode6SignalD2Ev; .type _ZN6Genode6SignalD2Ev,%function; _ZN6Genode6SignalD2Ev:
.text; .global _ZN6Genode6SignalaSERKS0_; .type _ZN6Genode6SignalaSERKS0_,%function; _ZN6Genode6SignalaSERKS0_:
.text; .global _ZN6Genode6Thread10stack_sizeEm; .type _ZN6Genode6Thread10stack_sizeEm,%function; _ZN6Genode6Thread10stack_sizeEm:
.text; .global _ZN6Genode6Thread13native_threadEv; .type _ZN6Genode6Thread13native_threadEv,%function; _ZN6Genode6Thread13native_threadEv:
.text; .global _ZN6Genode6Thread15cancel_blockingEv; .type _ZN6Genode6Thread15cancel_blockingEv,%function; _ZN6Genode6Thread15cancel_blockingEv:
.text; .global _ZN6Genode6Thread18stack_virtual_sizeEv; .type _ZN6Genode6Thread18stack_virtual_sizeEv,%function; _ZN6Genode6Thread18stack_virtual_sizeEv:
.text; .global _ZN6Genode6Thread20free_secondary_stackEPv; .type _ZN6Genode6Thread20free_secondary_stackEPv,%function; _ZN6Genode6Thread20free_secondary_stackEPv:
.text; .global _ZN6Genode6Thread21alloc_secondary_stackEPKcm; .type _ZN6Genode6Thread21alloc_secondary_stackEPKcm,%function; _ZN6Genode6Thread21alloc_secondary_stackEPKcm:
.text; .global _ZN6Genode6Thread23stack_area_virtual_baseEv; .type _ZN6Genode6Thread23stack_area_virtual_baseEv,%function; _ZN6Genode6Thread23stack_area_virtual_baseEv:
.text; .global _ZN6Genode6Thread23stack_area_virtual_sizeEv; .type _ZN6Genode6Thread23stack_area_virtual_sizeEv,%function; _ZN6Genode6Thread23stack_area_virtual_sizeEv:
.text; .global _ZN6Genode6Thread4joinEv; .type _ZN6Genode6Thread4joinEv,%function; _ZN6Genode6Thread4joinEv:
.text; .global _ZN6Genode6Thread4nameEPcm; .type _ZN6Genode6Thread4nameEPcm,%function; _ZN6Genode6Thread4nameEPcm:
.text; .global _ZN6Genode6Thread4utcbEv; .type _ZN6Genode6Thread4utcbEv,%function; _ZN6Genode6Thread4utcbEv:
.text; .global _ZN6Genode6Thread5startEv; .type _ZN6Genode6Thread5startEv,%function; _ZN6Genode6Thread5startEv:
.text; .global _ZN6Genode6Thread6myselfEv; .type _ZN6Genode6Thread6myselfEv,%function; _ZN6Genode6Thread6myselfEv:
.text; .global _ZN6Genode6Thread7_loggerEv; .type _ZN6Genode6Thread7_loggerEv,%function; _ZN6Genode6Thread7_loggerEv:
.text; .global _ZN6Genode6Thread7mystackEv; .type _ZN6Genode6Thread7mystackEv,%function; _ZN6Genode6Thread7mystackEv:
.text; .global _ZN6Genode6ThreadC1ERNS_3EnvERKNS_6StringILm32EEEm; .type _ZN6Genode6ThreadC1ERNS_3EnvERKNS_6StringILm32EEEm,%function; _ZN6Genode6ThreadC1ERNS_3EnvERKNS_6StringILm32EEEm:
.text; .global _ZN6Genode6ThreadC1ERNS_3EnvERKNS_6StringILm32EEEmNS_8Affinity8LocationENS_11Cpu_session6WeightERS9_; .type _ZN6Genode6ThreadC1ERNS_3EnvERKNS_6StringILm32EEEmNS_8Affinity8LocationENS_11Cpu_session6WeightERS9_,%function; _ZN6Genode6ThreadC1ERNS_3EnvERKNS_6StringILm32EEEmNS_8Affinity8LocationENS_11Cpu_session6WeightERS9_:
.text; .global _ZN6Genode6ThreadC1EmPKcmNS0_4TypeENS_8Affinity8LocationE; .type _ZN6Genode6ThreadC1EmPKcmNS0_4TypeENS_8Affinity8LocationE,%function; _ZN6Genode6ThreadC1EmPKcmNS0_4TypeENS_8Affinity8LocationE:
.text; .global _ZN6Genode6ThreadC1EmPKcmNS0_4TypeEPNS_11Cpu_sessionENS_8Affinity8LocationE; .type _ZN6Genode6ThreadC1EmPKcmNS0_4TypeEPNS_11Cpu_sessionENS_8Affinity8LocationE,%function; _ZN6Genode6ThreadC1EmPKcmNS0_4TypeEPNS_11Cpu_sessionENS_8Affinity8LocationE:
.text; .global _ZN6Genode6ThreadC2ERNS_3EnvERKNS_6StringILm32EEEm; .type _ZN6Genode6ThreadC2ERNS_3EnvERKNS_6StringILm32EEEm,%function; _ZN6Genode6ThreadC2ERNS_3EnvERKNS_6StringILm32EEEm:
.text; .global _ZN6Genode6ThreadC2ERNS_3EnvERKNS_6StringILm32EEEmNS_8Affinity8LocationENS_11Cpu_session6WeightERS9_; .type _ZN6Genode6ThreadC2ERNS_3EnvERKNS_6StringILm32EEEmNS_8Affinity8LocationENS_11Cpu_session6WeightERS9_,%function; _ZN6Genode6ThreadC2ERNS_3EnvERKNS_6StringILm32EEEmNS_8Affinity8LocationENS_11Cpu_session6WeightERS9_:
.text; .global _ZN6Genode6ThreadC2EmPKcmNS0_4TypeENS_8Affinity8LocationE; .type _ZN6Genode6ThreadC2EmPKcmNS0_4TypeENS_8Affinity8LocationE,%function; _ZN6Genode6ThreadC2EmPKcmNS0_4TypeENS_8Affinity8LocationE:
.text; .global _ZN6Genode6ThreadC2EmPKcmNS0_4TypeEPNS_11Cpu_sessionENS_8Affinity8LocationE; .type _ZN6Genode6ThreadC2EmPKcmNS0_4TypeEPNS_11Cpu_sessionENS_8Affinity8LocationE,%function; _ZN6Genode6ThreadC2EmPKcmNS0_4TypeEPNS_11Cpu_sessionENS_8Affinity8LocationE:
.text; .global _ZN6Genode6ThreadD0Ev; .type _ZN6Genode6ThreadD0Ev,%function; _ZN6Genode6ThreadD0Ev:
.text; .global _ZN6Genode6ThreadD1Ev; .type _ZN6Genode6ThreadD1Ev,%function; _ZN6Genode6ThreadD1Ev:
.text; .global _ZN6Genode6ThreadD2Ev; .type _ZN6Genode6ThreadD2Ev,%function; _ZN6Genode6ThreadD2Ev:
.text; .global _ZN6Genode7Console11_out_stringEPKc; .type _ZN6Genode7Console11_out_stringEPKc,%function; _ZN6Genode7Console11_out_stringEPKc:
.text; .global _ZN6Genode7Console6printfEPKcz; .type _ZN6Genode7Console6printfEPKcz,%function; _ZN6Genode7Console6printfEPKcz:
.text; .global _ZN6Genode7Console7vprintfEPKcP13__va_list_tag; .type _ZN6Genode7Console7vprintfEPKcP13__va_list_tag,%function; _ZN6Genode7Console7vprintfEPKcP13__va_list_tag:
.text; .global _ZN6Genode7Console7vprintfEPKcPc; .type _ZN6Genode7Console7vprintfEPKcPc,%function; _ZN6Genode7Console7vprintfEPKcPc:
.text; .global _ZN6Genode7Console7vprintfEPKcPv; .type _ZN6Genode7Console7vprintfEPKcPv,%function; _ZN6Genode7Console7vprintfEPKcPv:
.text; .global _ZN6Genode7Console7vprintfEPKcSt9__va_list; .type _ZN6Genode7Console7vprintfEPKcSt9__va_list,%function; _ZN6Genode7Console7vprintfEPKcSt9__va_list:
.text; .global _ZN6Genode7Timeout17schedule_one_shotENS_12MicrosecondsERNS0_7HandlerE; .type _ZN6Genode7Timeout17schedule_one_shotENS_12MicrosecondsERNS0_7HandlerE,%function; _ZN6Genode7Timeout17schedule_one_shotENS_12MicrosecondsERNS0_7HandlerE:
.text; .global _ZN6Genode7Timeout17schedule_periodicENS_12MicrosecondsERNS0_7HandlerE; .type _ZN6Genode7Timeout17schedule_periodicENS_12MicrosecondsERNS0_7HandlerE,%function; _ZN6Genode7Timeout17schedule_periodicENS_12MicrosecondsERNS0_7HandlerE:
.text; .global _ZN6Genode7Timeout5AlarmD0Ev; .type _ZN6Genode7Timeout5AlarmD0Ev,%function; _ZN6Genode7Timeout5AlarmD0Ev:
.text; .global _ZN6Genode7Timeout5AlarmD1Ev; .type _ZN6Genode7Timeout5AlarmD1Ev,%function; _ZN6Genode7Timeout5AlarmD1Ev:
.text; .global _ZN6Genode7Timeout5AlarmD2Ev; .type _ZN6Genode7Timeout5AlarmD2Ev,%function; _ZN6Genode7Timeout5AlarmD2Ev:
.text; .global _ZN6Genode7Timeout7discardEv; .type _ZN6Genode7Timeout7discardEv,%function; _ZN6Genode7Timeout7discardEv:
.text; .global _ZN6Genode7cap_mapEv; .type _ZN6Genode7cap_mapEv,%function; _ZN6Genode7cap_mapEv:
.text; .global _ZN6Genode8Duration3addENS_12MicrosecondsE; .type _ZN6Genode8Duration3addENS_12MicrosecondsE,%function; _ZN6Genode8Duration3addENS_12MicrosecondsE:
.text; .global _ZN6Genode8Duration3addENS_12MillisecondsE; .type _ZN6Genode8Duration3addENS_12MillisecondsE,%function; _ZN6Genode8Duration3addENS_12MillisecondsE:
.text; .global _ZN6Genode8ipc_callENS_17Native_capabilityERNS_11Msgbuf_baseES2_m; .type _ZN6Genode8ipc_callENS_17Native_capabilityERNS_11Msgbuf_baseES2_m,%function; _ZN6Genode8ipc_callENS_17Native_capabilityERNS_11Msgbuf_baseES2_m:
.text; .global _ZN6Genode9ipc_replyENS_17Native_capabilityENS_18Rpc_exception_codeERNS_11Msgbuf_baseE; .type _ZN6Genode9ipc_replyENS_17Native_capabilityENS_18Rpc_exception_codeERNS_11Msgbuf_baseE,%function; _ZN6Genode9ipc_replyENS_17Native_capabilityENS_18Rpc_exception_codeERNS_11Msgbuf_baseE:
.text; .global _ZNK6Genode11Sliced_heap8overheadEm; .type _ZNK6Genode11Sliced_heap8overheadEm,%function; _ZNK6Genode11Sliced_heap8overheadEm:
.text; .global _ZNK6Genode13Session_state24generate_session_requestERNS_13Xml_generatorE; .type _ZNK6Genode13Session_state24generate_session_requestERNS_13Xml_generatorE,%function; _ZNK6Genode13Session_state24generate_session_requestERNS_13Xml_generatorE:
.text; .global _ZNK6Genode13Session_state25generate_client_side_infoERNS_13Xml_generatorENS0_6DetailE; .type _ZNK6Genode13Session_state25generate_client_side_infoERNS_13Xml_generatorENS0_6DetailE,%function; _ZNK6Genode13Session_state25generate_client_side_infoERNS_13Xml_generatorENS0_6DetailE:
.text; .global _ZNK6Genode13Session_state25generate_server_side_infoERNS_13Xml_generatorENS0_6DetailE; .type _ZNK6Genode13Session_state25generate_server_side_infoERNS_13Xml_generatorENS0_6DetailE,%function; _ZNK6Genode13Session_state25generate_server_side_infoERNS_13Xml_generatorENS0_6DetailE:
.text; .global _ZNK6Genode13Session_state5printERNS_6OutputE; .type _ZNK6Genode13Session_state5printERNS_6OutputE,%function; _ZNK6Genode13Session_state5printERNS_6OutputE:
.text; .global _ZNK6Genode13Shared_object7_lookupEPKc; .type _ZNK6Genode13Shared_object7_lookupEPKc,%function; _ZNK6Genode13Shared_object7_lookupEPKc:
.text; .global _ZNK6Genode13Shared_object8link_mapEv; .type _ZNK6Genode13Shared_object8link_mapEv,%function; _ZNK6Genode13Shared_object8link_mapEv:
.text; .global _ZNK6Genode14Rpc_entrypoint9is_myselfEv; .type _ZNK6Genode14Rpc_entrypoint9is_myselfEv,%function; _ZNK6Genode14Rpc_entrypoint9is_myselfEv:
.text; .global _ZNK6Genode17Native_capability10local_nameEv; .type _ZNK6Genode17Native_capability10local_nameEv,%function; _ZNK6Genode17Native_capability10local_nameEv:
.text; .global _ZNK6Genode17Native_capability3rawEv; .type _ZNK6Genode17Native_capability3rawEv,%function; _ZNK6Genode17Native_capability3rawEv:
.text; .global _ZNK6Genode17Native_capability5printERNS_6OutputE; .type _ZNK6Genode17Native_capability5printERNS_6OutputE,%function; _ZNK6Genode17Native_capability5printERNS_6OutputE:
.text; .global _ZNK6Genode17Native_capability5validEv; .type _ZNK6Genode17Native_capability5validEv,%function; _ZNK6Genode17Native_capability5validEv:
.text; .global _ZNK6Genode18Allocator_avl_base10valid_addrEm; .type _ZNK6Genode18Allocator_avl_base10valid_addrEm,%function; _ZNK6Genode18Allocator_avl_base10valid_addrEm:
.text; .global _ZNK6Genode18Allocator_avl_base5availEv; .type _ZNK6Genode18Allocator_avl_base5availEv,%function; _ZNK6Genode18Allocator_avl_base5availEv:
.text; .global _ZNK6Genode18Allocator_avl_base7size_atEPKv; .type _ZNK6Genode18Allocator_avl_base7size_atEPKv,%function; _ZNK6Genode18Allocator_avl_base7size_atEPKv:
.text; .global _ZNK6Genode3Hex5printERNS_6OutputE; .type _ZNK6Genode3Hex5printERNS_6OutputE,%function; _ZNK6Genode3Hex5printERNS_6OutputE:
.text; .global _ZNK6Genode4Slab8consumedEv; .type _ZNK6Genode4Slab8consumedEv,%function; _ZNK6Genode4Slab8consumedEv:
.text; .global _ZNK6Genode5Child15main_thread_capEv; .type _ZNK6Genode5Child15main_thread_capEv,%function; _ZNK6Genode5Child15main_thread_capEv:
.text; .global _ZNK6Genode5Child18skipped_heartbeatsEv; .type _ZNK6Genode5Child18skipped_heartbeatsEv,%function; _ZNK6Genode5Child18skipped_heartbeatsEv:
.text; .global _ZNK6Genode5Child21notify_resource_availEv; .type _ZNK6Genode5Child21notify_resource_availEv,%function; _ZNK6Genode5Child21notify_resource_availEv:
.text; .global _ZNK6Genode6Thread10stack_baseEv; .type _ZNK6Genode6Thread10stack_baseEv,%function; _ZNK6Genode6Thread10stack_baseEv:
.text; .global _ZNK6Genode6Thread4nameEv; .type _ZNK6Genode6Thread4nameEv,%function; _ZNK6Genode6Thread4nameEv:
.text; .global _ZNK6Genode6Thread9stack_topEv; .type _ZNK6Genode6Thread9stack_topEv,%function; _ZNK6Genode6Thread9stack_topEv:
.text; .global _ZNK6Genode8Duration17trunc_to_plain_msEv; .type _ZNK6Genode8Duration17trunc_to_plain_msEv,%function; _ZNK6Genode8Duration17trunc_to_plain_msEv:
.text; .global _ZNK6Genode8Duration17trunc_to_plain_usEv; .type _ZNK6Genode8Duration17trunc_to_plain_usEv,%function; _ZNK6Genode8Duration17trunc_to_plain_usEv:
.text; .global _ZNK6Genode8Duration9less_thanERKS0_; .type _ZNK6Genode8Duration9less_thanERKS0_,%function; _ZNK6Genode8Duration9less_thanERKS0_:
.data; .global _ZTIN5Timer10ConnectionE; .type _ZTIN5Timer10ConnectionE,%object; .size _ZTIN5Timer10ConnectionE,88; _ZTIN5Timer10ConnectionE: .skip 1
.data; .global _ZTIN6Genode10Vm_sessionE; .type _ZTIN6Genode10Vm_sessionE,%object; .size _ZTIN6Genode10Vm_sessionE,24; _ZTIN6Genode10Vm_sessionE: .skip 1
.data; .global _ZTIN6Genode11Sliced_heapE; .type _ZTIN6Genode11Sliced_heapE,%object; .size _ZTIN6Genode11Sliced_heapE,24; _ZTIN6Genode11Sliced_heapE: .skip 1
.data; .global _ZTIN6Genode14Rpc_entrypointE; .type _ZTIN6Genode14Rpc_entrypointE,%object; .size _ZTIN6Genode14Rpc_entrypointE,56; _ZTIN6Genode14Rpc_entrypointE: .skip 1
.data; .global _ZTIN6Genode14Signal_contextE; .type _ZTIN6Genode14Signal_contextE,%object; .size _ZTIN6Genode14Signal_contextE,56; _ZTIN6Genode14Signal_contextE: .skip 1
.data; .global _ZTIN6Genode17Region_map_clientE; .type _ZTIN6Genode17Region_map_clientE,%object; .size _ZTIN6Genode17Region_map_clientE,24; _ZTIN6Genode17Region_map_clientE: .skip 1
.data; .global _ZTIN6Genode17Rm_session_clientE; .type _ZTIN6Genode17Rm_session_clientE,%object; .size _ZTIN6Genode17Rm_session_clientE,24; _ZTIN6Genode17Rm_session_clientE: .skip 1
.data; .global _ZTIN6Genode18Allocator_avl_baseE; .type _ZTIN6Genode18Allocator_avl_baseE,%object; .size _ZTIN6Genode18Allocator_avl_baseE,24; _ZTIN6Genode18Allocator_avl_baseE: .skip 1
.data; .global _ZTIN6Genode23Alarm_timeout_schedulerE; .type _ZTIN6Genode23Alarm_timeout_schedulerE,%object; .size _ZTIN6Genode23Alarm_timeout_schedulerE,72; _ZTIN6Genode23Alarm_timeout_schedulerE: .skip 1
.data; .global _ZTIN6Genode4HeapE; .type _ZTIN6Genode4HeapE,%object; .size _ZTIN6Genode4HeapE,24; _ZTIN6Genode4HeapE: .skip 1
.data; .global _ZTIN6Genode4SlabE; .type _ZTIN6Genode4SlabE,%object; .size _ZTIN6Genode4SlabE,24; _ZTIN6Genode4SlabE: .skip 1
.data; .global _ZTIN6Genode5AlarmE; .type _ZTIN6Genode5AlarmE,%object; .size _ZTIN6Genode5AlarmE,16; _ZTIN6Genode5AlarmE: .skip 1
.data; .global _ZTIN6Genode5Child14Initial_threadE; .type _ZTIN6Genode5Child14Initial_threadE,%object; .size _ZTIN6Genode5Child14Initial_threadE,24; _ZTIN6Genode5Child14Initial_threadE: .skip 1
.data; .global _ZTIN6Genode5ChildE; .type _ZTIN6Genode5ChildE,%object; .size _ZTIN6Genode5ChildE,72; _ZTIN6Genode5ChildE: .skip 1
.data; .global _ZTIN6Genode6OutputE; .type _ZTIN6Genode6OutputE,%object; .size _ZTIN6Genode6OutputE,24; _ZTIN6Genode6OutputE: .skip 1
.data; .global _ZTIN6Genode6ThreadE; .type _ZTIN6Genode6ThreadE,%object; .size _ZTIN6Genode6ThreadE,16; _ZTIN6Genode6ThreadE: .skip 1
.data; .global _ZTIN6Genode7ConsoleE; .type _ZTIN6Genode7ConsoleE,%object; .size _ZTIN6Genode7ConsoleE,16; _ZTIN6Genode7ConsoleE: .skip 1
.data; .global _ZTIN6Genode7Timeout5AlarmE; .type _ZTIN6Genode7Timeout5AlarmE,%object; .size _ZTIN6Genode7Timeout5AlarmE,16; _ZTIN6Genode7Timeout5AlarmE: .skip 1
.section .rodata; .global _ZTSN5Timer10ConnectionE; .type _ZTSN5Timer10ConnectionE,%object; .size _ZTSN5Timer10ConnectionE,21; _ZTSN5Timer10ConnectionE:
.section .rodata; .global _ZTSN6Genode11Sliced_heapE; .type _ZTSN6Genode11Sliced_heapE,%object; .size _ZTSN6Genode11Sliced_heapE,23; _ZTSN6Genode11Sliced_heapE:
.section .rodata; .global _ZTSN6Genode14Rpc_entrypointE; .type _ZTSN6Genode14Rpc_entrypointE,%object; .size _ZTSN6Genode14Rpc_entrypointE,26; _ZTSN6Genode14Rpc_entrypointE:
.section .rodata; .global _ZTSN6Genode14Signal_contextE; .type _ZTSN6Genode14Signal_contextE,%object; .size _ZTSN6Genode14Signal_contextE,26; _ZTSN6Genode14Signal_contextE:
.section .rodata; .global _ZTSN6Genode17Region_map_clientE; .type _ZTSN6Genode17Region_map_clientE,%object; .size _ZTSN6Genode17Region_map_clientE,29; _ZTSN6Genode17Region_map_clientE:
.section .rodata; .global _ZTSN6Genode17Rm_session_clientE; .type _ZTSN6Genode17Rm_session_clientE,%object; .size _ZTSN6Genode17Rm_session_clientE,29; _ZTSN6Genode17Rm_session_clientE:
.section .rodata; .global _ZTSN6Genode18Allocator_avl_baseE; .type _ZTSN6Genode18Allocator_avl_baseE,%object; .size _ZTSN6Genode18Allocator_avl_baseE,30; _ZTSN6Genode18Allocator_avl_baseE:
.section .rodata; .global _ZTSN6Genode23Alarm_timeout_schedulerE; .type _ZTSN6Genode23Alarm_timeout_schedulerE,%object; .size _ZTSN6Genode23Alarm_timeout_schedulerE,35; _ZTSN6Genode23Alarm_timeout_schedulerE:
.section .rodata; .global _ZTSN6Genode4HeapE; .type _ZTSN6Genode4HeapE,%object; .size _ZTSN6Genode4HeapE,15; _ZTSN6Genode4HeapE:
.section .rodata; .global _ZTSN6Genode4SlabE; .type _ZTSN6Genode4SlabE,%object; .size _ZTSN6Genode4SlabE,15; _ZTSN6Genode4SlabE:
.section .rodata; .global _ZTSN6Genode5AlarmE; .type _ZTSN6Genode5AlarmE,%object; .size _ZTSN6Genode5AlarmE,16; _ZTSN6Genode5AlarmE:
.section .rodata; .global _ZTSN6Genode5Child14Initial_threadE; .type _ZTSN6Genode5Child14Initial_threadE,%object; .size _ZTSN6Genode5Child14Initial_threadE,32; _ZTSN6Genode5Child14Initial_threadE:
.section .rodata; .global _ZTSN6Genode5ChildE; .type _ZTSN6Genode5ChildE,%object; .size _ZTSN6Genode5ChildE,16; _ZTSN6Genode5ChildE:
.section .rodata; .global _ZTSN6Genode6OutputE; .type _ZTSN6Genode6OutputE,%object; .size _ZTSN6Genode6OutputE,17; _ZTSN6Genode6OutputE:
.section .rodata; .global _ZTSN6Genode6ThreadE; .type _ZTSN6Genode6ThreadE,%object; .size _ZTSN6Genode6ThreadE,17; _ZTSN6Genode6ThreadE:
.section .rodata; .global _ZTSN6Genode7ConsoleE; .type _ZTSN6Genode7ConsoleE,%object; .size _ZTSN6Genode7ConsoleE,18; _ZTSN6Genode7ConsoleE:
.section .rodata; .global _ZTSN6Genode7Timeout5AlarmE; .type _ZTSN6Genode7Timeout5AlarmE,%object; .size _ZTSN6Genode7Timeout5AlarmE,24; _ZTSN6Genode7Timeout5AlarmE:
.data; .global _ZTVN5Timer10ConnectionE; .type _ZTVN5Timer10ConnectionE,%object; .size _ZTVN5Timer10ConnectionE,320; _ZTVN5Timer10ConnectionE: .skip 1
.data; .global _ZTVN6Genode10Vm_sessionE; .type _ZTVN6Genode10Vm_sessionE,%object; .size _ZTVN6Genode10Vm_sessionE,56; _ZTVN6Genode10Vm_sessionE: .skip 1
.data; .global _ZTVN6Genode11Sliced_heapE; .type _ZTVN6Genode11Sliced_heapE,%object; .size _ZTVN6Genode11Sliced_heapE,72; _ZTVN6Genode11Sliced_heapE: .skip 1
.data; .global _ZTVN6Genode14Rpc_entrypointE; .type _ZTVN6Genode14Rpc_entrypointE,%object; .size _ZTVN6Genode14Rpc_entrypointE,80; _ZTVN6Genode14Rpc_entrypointE: .skip 1
.data; .global _ZTVN6Genode14Signal_contextE; .type _ZTVN6Genode14Signal_contextE,%object; .size _ZTVN6Genode14Signal_contextE,32; _ZTVN6Genode14Signal_contextE: .skip 1
.data; .global _ZTVN6Genode17Region_map_clientE; .type _ZTVN6Genode17Region_map_clientE,%object; .size _ZTVN6Genode17Region_map_clientE,72; _ZTVN6Genode17Region_map_clientE: .skip 1
.data; .global _ZTVN6Genode17Rm_session_clientE; .type _ZTVN6Genode17Rm_session_clientE,%object; .size _ZTVN6Genode17Rm_session_clientE,48; _ZTVN6Genode17Rm_session_clientE: .skip 1
.data; .global _ZTVN6Genode18Allocator_avl_baseE; .type _ZTVN6Genode18Allocator_avl_baseE,%object; .size _ZTVN6Genode18Allocator_avl_baseE,128; _ZTVN6Genode18Allocator_avl_baseE: .skip 1
.data; .global _ZTVN6Genode23Alarm_timeout_schedulerE; .type _ZTVN6Genode23Alarm_timeout_schedulerE,%object; .size _ZTVN6Genode23Alarm_timeout_schedulerE,112; _ZTVN6Genode23Alarm_timeout_schedulerE: .skip 1
.data; .global _ZTVN6Genode4HeapE; .type _ZTVN6Genode4HeapE,%object; .size _ZTVN6Genode4HeapE,72; _ZTVN6Genode4HeapE: .skip 1
.data; .global _ZTVN6Genode4SlabE; .type _ZTVN6Genode4SlabE,%object; .size _ZTVN6Genode4SlabE,72; _ZTVN6Genode4SlabE: .skip 1
.data; .global _ZTVN6Genode5AlarmE; .type _ZTVN6Genode5AlarmE,%object; .size _ZTVN6Genode5AlarmE,40; _ZTVN6Genode5AlarmE: .skip 1
.data; .global _ZTVN6Genode5Child14Initial_threadE; .type _ZTVN6Genode5Child14Initial_threadE,%object; .size _ZTVN6Genode5Child14Initial_threadE,48; _ZTVN6Genode5Child14Initial_threadE: .skip 1
.data; .global _ZTVN6Genode5ChildE; .type _ZTVN6Genode5ChildE,%object; .size _ZTVN6Genode5ChildE,440; _ZTVN6Genode5ChildE: .skip 1
.data; .global _ZTVN6Genode6OutputE; .type _ZTVN6Genode6OutputE,%object; .size _ZTVN6Genode6OutputE,48; _ZTVN6Genode6OutputE: .skip 1
.data; .global _ZTVN6Genode6ThreadE; .type _ZTVN6Genode6ThreadE,%object; .size _ZTVN6Genode6ThreadE,48; _ZTVN6Genode6ThreadE: .skip 1
.data; .global _ZTVN6Genode7ConsoleE; .type _ZTVN6Genode7ConsoleE,%object; .size _ZTVN6Genode7ConsoleE,48; _ZTVN6Genode7ConsoleE: .skip 1
.data; .global _ZTVN6Genode7Timeout5AlarmE; .type _ZTVN6Genode7Timeout5AlarmE,%object; .size _ZTVN6Genode7Timeout5AlarmE,32; _ZTVN6Genode7Timeout5AlarmE: .skip 1
.text; .global _ZThn236_N5Timer10Connection16schedule_timeoutEN6Genode12MicrosecondsERNS1_11Time_source15Timeout_handlerE; .type _ZThn236_N5Timer10Connection16schedule_timeoutEN6Genode12MicrosecondsERNS1_11Time_source15Timeout_handlerE,%function; _ZThn236_N5Timer10Connection16schedule_timeoutEN6Genode12MicrosecondsERNS1_11Time_source15Timeout_handlerE:
.text; .global _ZThn236_N5Timer10Connection9curr_timeEv; .type _ZThn236_N5Timer10Connection9curr_timeEv,%function; _ZThn236_N5Timer10Connection9curr_timeEv:
.text; .global _ZThn240_N5Timer10Connection18_schedule_one_shotERN6Genode7TimeoutENS1_12MicrosecondsE; .type _ZThn240_N5Timer10Connection18_schedule_one_shotERN6Genode7TimeoutENS1_12MicrosecondsE,%function; _ZThn240_N5Timer10Connection18_schedule_one_shotERN6Genode7TimeoutENS1_12MicrosecondsE:
.text; .global _ZThn240_N5Timer10Connection18_schedule_periodicERN6Genode7TimeoutENS1_12MicrosecondsE; .type _ZThn240_N5Timer10Connection18_schedule_periodicERN6Genode7TimeoutENS1_12MicrosecondsE,%function; _ZThn240_N5Timer10Connection18_schedule_periodicERN6Genode7TimeoutENS1_12MicrosecondsE:
.text; .global _ZThn240_N5Timer10Connection8_discardERN6Genode7TimeoutE; .type _ZThn240_N5Timer10Connection8_discardERN6Genode7TimeoutE,%function; _ZThn240_N5Timer10Connection8_discardERN6Genode7TimeoutE:
.text; .global _ZThn240_N5Timer10Connection9curr_timeEv; .type _ZThn240_N5Timer10Connection9curr_timeEv,%function; _ZThn240_N5Timer10Connection9curr_timeEv:
.text; .global _ZThn288_N5Timer10Connection16schedule_timeoutEN6Genode12MicrosecondsERNS1_11Time_source15Timeout_handlerE; .type _ZThn288_N5Timer10Connection16schedule_timeoutEN6Genode12MicrosecondsERNS1_11Time_source15Timeout_handlerE,%function; _ZThn288_N5Timer10Connection16schedule_timeoutEN6Genode12MicrosecondsERNS1_11Time_source15Timeout_handlerE:
.text; .global _ZThn288_N5Timer10Connection9curr_timeEv; .type _ZThn288_N5Timer10Connection9curr_timeEv,%function; _ZThn288_N5Timer10Connection9curr_timeEv:
.text; .global _ZThn296_N5Timer10Connection18_schedule_one_shotERN6Genode7TimeoutENS1_12MicrosecondsE; .type _ZThn296_N5Timer10Connection18_schedule_one_shotERN6Genode7TimeoutENS1_12MicrosecondsE,%function; _ZThn296_N5Timer10Connection18_schedule_one_shotERN6Genode7TimeoutENS1_12MicrosecondsE:
.text; .global _ZThn296_N5Timer10Connection18_schedule_periodicERN6Genode7TimeoutENS1_12MicrosecondsE; .type _ZThn296_N5Timer10Connection18_schedule_periodicERN6Genode7TimeoutENS1_12MicrosecondsE,%function; _ZThn296_N5Timer10Connection18_schedule_periodicERN6Genode7TimeoutENS1_12MicrosecondsE:
.text; .global _ZThn296_N5Timer10Connection8_discardERN6Genode7TimeoutE; .type _ZThn296_N5Timer10Connection8_discardERN6Genode7TimeoutE,%function; _ZThn296_N5Timer10Connection8_discardERN6Genode7TimeoutE:
.text; .global _ZThn296_N5Timer10Connection9curr_timeEv; .type _ZThn296_N5Timer10Connection9curr_timeEv,%function; _ZThn296_N5Timer10Connection9curr_timeEv:
.text; .global _ZThn4_N6Genode23Alarm_timeout_scheduler14handle_timeoutENS_8DurationE; .type _ZThn4_N6Genode23Alarm_timeout_scheduler14handle_timeoutENS_8DurationE,%function; _ZThn4_N6Genode23Alarm_timeout_scheduler14handle_timeoutENS_8DurationE:
.text; .global _ZThn8_N6Genode23Alarm_timeout_scheduler14handle_timeoutENS_8DurationE; .type _ZThn8_N6Genode23Alarm_timeout_scheduler14handle_timeoutENS_8DurationE,%function; _ZThn8_N6Genode23Alarm_timeout_scheduler14handle_timeoutENS_8DurationE:
.text; .global _ZThn8_N6Genode23Alarm_timeout_schedulerD0Ev; .type _ZThn8_N6Genode23Alarm_timeout_schedulerD0Ev,%function; _ZThn8_N6Genode23Alarm_timeout_schedulerD0Ev:
.text; .global _ZThn8_N6Genode23Alarm_timeout_schedulerD1Ev; .type _ZThn8_N6Genode23Alarm_timeout_schedulerD1Ev,%function; _ZThn8_N6Genode23Alarm_timeout_schedulerD1Ev:
.text; .global _ZdlPvPN6Genode11DeallocatorE; .type _ZdlPvPN6Genode11DeallocatorE,%function; _ZdlPvPN6Genode11DeallocatorE:
.text; .weak _ZdlPvPN6Genode9AllocatorE; .type _ZdlPvPN6Genode9AllocatorE,%function; _ZdlPvPN6Genode9AllocatorE:
.text; .global _ZdlPvRN6Genode11DeallocatorE; .type _ZdlPvRN6Genode11DeallocatorE,%function; _ZdlPvRN6Genode11DeallocatorE:
.text; .weak _ZdlPvRN6Genode9AllocatorE; .type _ZdlPvRN6Genode9AllocatorE,%function; _ZdlPvRN6Genode9AllocatorE:
.text; .global _ZnajPN6Genode9AllocatorE; .type _ZnajPN6Genode9AllocatorE,%function; _ZnajPN6Genode9AllocatorE:
.text; .global _ZnajRN6Genode9AllocatorE; .type _ZnajRN6Genode9AllocatorE,%function; _ZnajRN6Genode9AllocatorE:
.text; .global _ZnamPN6Genode9AllocatorE; .type _ZnamPN6Genode9AllocatorE,%function; _ZnamPN6Genode9AllocatorE:
.text; .global _ZnamRN6Genode9AllocatorE; .type _ZnamRN6Genode9AllocatorE,%function; _ZnamRN6Genode9AllocatorE:
.text; .global _ZnwjPN6Genode9AllocatorE; .type _ZnwjPN6Genode9AllocatorE,%function; _ZnwjPN6Genode9AllocatorE:
.text; .global _ZnwjRN6Genode9AllocatorE; .type _ZnwjRN6Genode9AllocatorE,%function; _ZnwjRN6Genode9AllocatorE:
.text; .global _ZnwmPN6Genode9AllocatorE; .type _ZnwmPN6Genode9AllocatorE,%function; _ZnwmPN6Genode9AllocatorE:
.text; .global _ZnwmRN6Genode9AllocatorE; .type _ZnwmRN6Genode9AllocatorE,%function; _ZnwmRN6Genode9AllocatorE:
.data; .global genode_argc; .type genode_argc,%object; .size genode_argc,4; genode_argc: .skip 1
.data; .global genode_argv; .type genode_argv,%object; .size genode_argv,8; genode_argv: .skip 1
.bss; .global genode_envp; .type genode_envp,%object; .size genode_envp,8; genode_envp:
.bss; .global lx_environ; .type lx_environ,%object; .size lx_environ,8; lx_environ:
.text; .weak memcpy; .type memcpy,%function; memcpy:
.text; .weak memmove; .type memmove,%function; memmove:
.text; .weak memset; .type memset,%function; memset:
.text; .global stdout_reconnect; .type stdout_reconnect,%function; stdout_reconnect:
.text; .global wait_for_continue; .type wait_for_continue,%function; wait_for_continue:

#
# C++ runtime
#
# Keep list in sync with libports/lib/symbols/libc!
#
.text; .global _Unwind_Complete; .type _Unwind_Complete,%function; _Unwind_Complete:
.text; .global _Unwind_DeleteException; .type _Unwind_DeleteException,%function; _Unwind_DeleteException:
.text; .global _Unwind_Resume; .type _Unwind_Resume,%function; _Unwind_Resume:
.text; .global _ZNK10__cxxabiv117__class_type_info10__do_catchEPKSt9type_infoPPvj; .type _ZNK10__cxxabiv117__class_type_info10__do_catchEPKSt9type_infoPPvj,%function; _ZNK10__cxxabiv117__class_type_info10__do_catchEPKSt9type_infoPPvj:
.text; .global _ZNK10__cxxabiv120__si_class_type_info11__do_upcastEPKNS_17__class_type_infoEPKvRNS1_15__upcast_resultE; .type _ZNK10__cxxabiv120__si_class_type_info11__do_upcastEPKNS_17__class_type_infoEPKvRNS1_15__upcast_resultE,%function; _ZNK10__cxxabiv120__si_class_type_info11__do_upcastEPKNS_17__class_type_infoEPKvRNS1_15__upcast_resultE:
.text; .global _ZNK10__cxxabiv120__si_class_type_info12__do_dyncastElNS_17__class_type_info10__sub_kindEPKS1_PKvS4_S6_RNS1_16__dyncast_resultE; .type _ZNK10__cxxabiv120__si_class_type_info12__do_dyncastElNS_17__class_type_info10__sub_kindEPKS1_PKvS4_S6_RNS1_16__dyncast_resultE,%function; _ZNK10__cxxabiv120__si_class_type_info12__do_dyncastElNS_17__class_type_info10__sub_kindEPKS1_PKvS4_S6_RNS1_16__dyncast_resultE:
.text; .global _ZNK10__cxxabiv120__si_class_type_info20__do_find_public_srcElPKvPKNS_17__class_type_infoES2_; .type _ZNK10__cxxabiv120__si_class_type_info20__do_find_public_srcElPKvPKNS_17__class_type_infoES2_,%function; _ZNK10__cxxabiv120__si_class_type_info20__do_find_public_srcElPKvPKNS_17__class_type_infoES2_:
.text; .global _ZNKSt13bad_exception4whatEv; .type _ZNKSt13bad_exception4whatEv,%function; _ZNKSt13bad_exception4whatEv:
.text; .global _ZNKSt9exception4whatEv; .type _ZNKSt9exception4whatEv,%function; _ZNKSt9exception4whatEv:
.text; .global _ZNSt13bad_exceptionD0Ev; .type _ZNSt13bad_exceptionD0Ev,%function; _ZNSt13bad_exceptionD0Ev:
.text; .global _ZNSt13bad_exceptionD1Ev; .type _ZNSt13bad_exceptionD1Ev,%function; _ZNSt13bad_exceptionD1Ev:
.text; .global _ZNSt13bad_exceptionD2Ev; .type _ZNSt13bad_exceptionD2Ev,%function; _ZNSt13bad_exceptionD2Ev:
.text; .global _ZNSt9exceptionD0Ev; .type _ZNSt9exceptionD0Ev,%function; _ZNSt9exceptionD0Ev:
.text; .global _ZNSt9exceptionD1Ev; .type _ZNSt9exceptionD1Ev,%function; _ZNSt9exceptionD1Ev:
.text; .global _ZNSt9exceptionD2Ev; .type _ZNSt9exceptionD2Ev,%function; _ZNSt9exceptionD2Ev:
.text; .global _ZSt18uncaught_exceptionv; .type _ZSt18uncaught_exceptionv,%function; _ZSt18uncaught_exceptionv:
.text; .global _ZSt19uncaught_exceptionsv; .type _ZSt19uncaught_exceptionsv,%function; _ZSt19uncaught_exceptionsv:
.text; .global _ZSt9terminatev; .type _ZSt9terminatev,%function; _ZSt9terminatev:
.data; .global _ZTIDd; .type _ZTIDd,%object; .size _ZTIDd,16; _ZTIDd: .skip 1
.data; .global _ZTIDe; .type _ZTIDe,%object; .size _ZTIDe,16; _ZTIDe: .skip 1
.data; .global _ZTIDf; .type _ZTIDf,%object; .size _ZTIDf,16; _ZTIDf: .skip 1
.data; .global _ZTIDi; .type _ZTIDi,%object; .size _ZTIDi,16; _ZTIDi: .skip 1
.data; .global _ZTIDn; .type _ZTIDn,%object; .size _ZTIDn,16; _ZTIDn: .skip 1
.data; .global _ZTIDs; .type _ZTIDs,%object; .size _ZTIDs,16; _ZTIDs: .skip 1
.data; .global _ZTIN10__cxxabiv115__forced_unwindE; .type _ZTIN10__cxxabiv115__forced_unwindE,%object; .size _ZTIN10__cxxabiv115__forced_unwindE,16; _ZTIN10__cxxabiv115__forced_unwindE: .skip 1
.data; .global _ZTIN10__cxxabiv116__enum_type_infoE; .type _ZTIN10__cxxabiv116__enum_type_infoE,%object; .size _ZTIN10__cxxabiv116__enum_type_infoE,24; _ZTIN10__cxxabiv116__enum_type_infoE: .skip 1
.data; .global _ZTIN10__cxxabiv117__class_type_infoE; .type _ZTIN10__cxxabiv117__class_type_infoE,%object; .size _ZTIN10__cxxabiv117__class_type_infoE,24; _ZTIN10__cxxabiv117__class_type_infoE: .skip 1
.data; .global _ZTIN10__cxxabiv117__pbase_type_infoE; .type _ZTIN10__cxxabiv117__pbase_type_infoE,%object; .size _ZTIN10__cxxabiv117__pbase_type_infoE,24; _ZTIN10__cxxabiv117__pbase_type_infoE: .skip 1
.data; .global _ZTIN10__cxxabiv119__foreign_exceptionE; .type _ZTIN10__cxxabiv119__foreign_exceptionE,%object; .size _ZTIN10__cxxabiv119__foreign_exceptionE,16; _ZTIN10__cxxabiv119__foreign_exceptionE: .skip 1
.data; .global _ZTIN10__cxxabiv119__pointer_type_infoE; .type _ZTIN10__cxxabiv119__pointer_type_infoE,%object; .size _ZTIN10__cxxabiv119__pointer_type_infoE,24; _ZTIN10__cxxabiv119__pointer_type_infoE: .skip 1
.data; .global _ZTIN10__cxxabiv120__function_type_infoE; .type _ZTIN10__cxxabiv120__function_type_infoE,%object; .size _ZTIN10__cxxabiv120__function_type_infoE,24; _ZTIN10__cxxabiv120__function_type_infoE: .skip 1
.data; .global _ZTIN10__cxxabiv120__si_class_type_infoE; .type _ZTIN10__cxxabiv120__si_class_type_infoE,%object; .size _ZTIN10__cxxabiv120__si_class_type_infoE,24; _ZTIN10__cxxabiv120__si_class_type_infoE: .skip 1
.data; .global _ZTIN10__cxxabiv121__vmi_class_type_infoE; .type _ZTIN10__cxxabiv121__vmi_class_type_infoE,%object; .size _ZTIN10__cxxabiv121__vmi_class_type_infoE,24; _ZTIN10__cxxabiv121__vmi_class_type_infoE: .skip 1
.data; .global _ZTIN10__cxxabiv123__fundamental_type_infoE; .type _ZTIN10__cxxabiv123__fundamental_type_infoE,%object; .size _ZTIN10__cxxabiv123__fundamental_type_infoE,24; _ZTIN10__cxxabiv123__fundamental_type_infoE: .skip 1
.data; .global _ZTIPDd; .type _ZTIPDd,%object; .size _ZTIPDd,32; _ZTIPDd: .skip 1
.data; .global _ZTIPDe; .type _ZTIPDe,%object; .size _ZTIPDe,32; _ZTIPDe: .skip 1
.data; .global _ZTIPDf; .type _ZTIPDf,%object; .size _ZTIPDf,32; _ZTIPDf: .skip 1
.data; .global _ZTIPDi; .type _ZTIPDi,%object; .size _ZTIPDi,32; _ZTIPDi: .skip 1
.data; .global _ZTIPDn; .type _ZTIPDn,%object; .size _ZTIPDn,32; _ZTIPDn: .skip 1
.data; .global _ZTIPDs; .type _ZTIPDs,%object; .size _ZTIPDs,32; _ZTIPDs: .skip 1
.data; .global _ZTIPKDd; .type _ZTIPKDd,%object; .size _ZTIPKDd,32; _ZTIPKDd: .skip 1
.data; .global _ZTIPKDe; .type _ZTIPKDe,%object; .size _ZTIPKDe,32; _ZTIPKDe: .skip 1
.data; .global _ZTIPKDf; .type _ZTIPKDf,%object; .size _ZTIPKDf,32; _ZTIPKDf: .skip 1
.data; .global _ZTIPKDi; .type _ZTIPKDi,%object; .size _ZTIPKDi,32; _ZTIPKDi: .skip 1
.data; .global _ZTIPKDn; .type _ZTIPKDn,%object; .size _ZTIPKDn,32; _ZTIPKDn: .skip 1
.data; .global _ZTIPKDs; .type _ZTIPKDs,%object; .size _ZTIPKDs,32; _ZTIPKDs: .skip 1
.data; .global _ZTIPKa; .type _ZTIPKa,%object; .size _ZTIPKa,32; _ZTIPKa: .skip 1
.data; .global _ZTIPKb; .type _ZTIPKb,%object; .size _ZTIPKb,32; _ZTIPKb: .skip 1
.data; .global _ZTIPKc; .type _ZTIPKc,%object; .size _ZTIPKc,32; _ZTIPKc: .skip 1
.data; .global _ZTIPKd; .type _ZTIPKd,%object; .size _ZTIPKd,32; _ZTIPKd: .skip 1
.data; .global _ZTIPKe; .type _ZTIPKe,%object; .size _ZTIPKe,32; _ZTIPKe: .skip 1
.data; .global _ZTIPKf; .type _ZTIPKf,%object; .size _ZTIPKf,32; _ZTIPKf: .skip 1
.data; .global _ZTIPKh; .type _ZTIPKh,%object; .size _ZTIPKh,32; _ZTIPKh: .skip 1
.data; .global _ZTIPKi; .type _ZTIPKi,%object; .size _ZTIPKi,32; _ZTIPKi: .skip 1
.data; .global _ZTIPKj; .type _ZTIPKj,%object; .size _ZTIPKj,32; _ZTIPKj: .skip 1
.data; .global _ZTIPKl; .type _ZTIPKl,%object; .size _ZTIPKl,32; _ZTIPKl: .skip 1
.data; .global _ZTIPKm; .type _ZTIPKm,%object; .size _ZTIPKm,32; _ZTIPKm: .skip 1
.data; .global _ZTIPKs; .type _ZTIPKs,%object; .size _ZTIPKs,32; _ZTIPKs: .skip 1
.data; .global _ZTIPKt; .type _ZTIPKt,%object; .size _ZTIPKt,32; _ZTIPKt: .skip 1
.data; .global _ZTIPKx; .type _ZTIPKx,%object; .size _ZTIPKx,32; _ZTIPKx: .skip 1
.data; .global _ZTIPKy; .type _ZTIPKy,%object; .size _ZTIPKy,32; _ZTIPKy: .skip 1
.data; .global _ZTIPVKa; .type _ZTIPVKa,%object; .size _ZTIPVKa,32; _ZTIPVKa: .skip 1
.data; .global _ZTIPVKb; .type _ZTIPVKb,%object; .size _ZTIPVKb,32; _ZTIPVKb: .skip 1
.data; .global _ZTIPVKc; .type _ZTIPVKc,%object; .size _ZTIPVKc,32; _ZTIPVKc: .skip 1
.data; .global _ZTIPVKd; .type _ZTIPVKd,%object; .size _ZTIPVKd,32; _ZTIPVKd: .skip 1
.data; .global _ZTIPVKe; .type _ZTIPVKe,%object; .size _ZTIPVKe,32; _ZTIPVKe: .skip 1
.data; .global _ZTIPVKf; .type _ZTIPVKf,%object; .size _ZTIPVKf,32; _ZTIPVKf: .skip 1
.data; .global _ZTIPVKh; .type _ZTIPVKh,%object; .size _ZTIPVKh,32; _ZTIPVKh: .skip 1
.data; .global _ZTIPVKi; .type _ZTIPVKi,%object; .size _ZTIPVKi,32; _ZTIPVKi: .skip 1
.data; .global _ZTIPVKj; .type _ZTIPVKj,%object; .size _ZTIPVKj,32; _ZTIPVKj: .skip 1
.data; .global _ZTIPVKl; .type _ZTIPVKl,%object; .size _ZTIPVKl,32; _ZTIPVKl: .skip 1
.data; .global _ZTIPVKm; .type _ZTIPVKm,%object; .size _ZTIPVKm,32; _ZTIPVKm: .skip 1
.data; .global _ZTIPVKs; .type _ZTIPVKs,%object; .size _ZTIPVKs,32; _ZTIPVKs: .skip 1
.data; .global _ZTIPVKt; .type _ZTIPVKt,%object; .size _ZTIPVKt,32; _ZTIPVKt: .skip 1
.data; .global _ZTIPVKx; .type _ZTIPVKx,%object; .size _ZTIPVKx,32; _ZTIPVKx: .skip 1
.data; .global _ZTIPVKy; .type _ZTIPVKy,%object; .size _ZTIPVKy,32; _ZTIPVKy: .skip 1
.data; .global _ZTIPVa; .type _ZTIPVa,%object; .size _ZTIPVa,32; _ZTIPVa: .skip 1
.data; .global _ZTIPVb; .type _ZTIPVb,%object; .size _ZTIPVb,32; _ZTIPVb: .skip 1
.data; .global _ZTIPVc; .type _ZTIPVc,%object; .size _ZTIPVc,32; _ZTIPVc: .skip 1
.data; .global _ZTIPVd; .type _ZTIPVd,%object; .size _ZTIPVd,32; _ZTIPVd: .skip 1
.data; .global _ZTIPVe; .type _ZTIPVe,%object; .size _ZTIPVe,32; _ZTIPVe: .skip 1
.data; .global _ZTIPVf; .type _ZTIPVf,%object; .size _ZTIPVf,32; _ZTIPVf: .skip 1
.data; .global _ZTIPVh; .type _ZTIPVh,%object; .size _ZTIPVh,32; _ZTIPVh: .skip 1
.data; .global _ZTIPVi; .type _ZTIPVi,%object; .size _ZTIPVi,32; _ZTIPVi: .skip 1
.data; .global _ZTIPVj; .type _ZTIPVj,%object; .size _ZTIPVj,32; _ZTIPVj: .skip 1
.data; .global _ZTIPVl; .type _ZTIPVl,%object; .size _ZTIPVl,32; _ZTIPVl: .skip 1
.data; .global _ZTIPVm; .type _ZTIPVm,%object; .size _ZTIPVm,32; _ZTIPVm: .skip 1
.data; .global _ZTIPVs; .type _ZTIPVs,%object; .size _ZTIPVs,32; _ZTIPVs: .skip 1
.data; .global _ZTIPVt; .type _ZTIPVt,%object; .size _ZTIPVt,32; _ZTIPVt: .skip 1
.data; .global _ZTIPVx; .type _ZTIPVx,%object; .size _ZTIPVx,32; _ZTIPVx: .skip 1
.data; .global _ZTIPVy; .type _ZTIPVy,%object; .size _ZTIPVy,32; _ZTIPVy: .skip 1
.data; .global _ZTIPa; .type _ZTIPa,%object; .size _ZTIPa,32; _ZTIPa: .skip 1
.data; .global _ZTIPb; .type _ZTIPb,%object; .size _ZTIPb,32; _ZTIPb: .skip 1
.data; .global _ZTIPc; .type _ZTIPc,%object; .size _ZTIPc,32; _ZTIPc: .skip 1
.data; .global _ZTIPd; .type _ZTIPd,%object; .size _ZTIPd,32; _ZTIPd: .skip 1
.data; .global _ZTIPe; .type _ZTIPe,%object; .size _ZTIPe,32; _ZTIPe: .skip 1
.data; .global _ZTIPf; .type _ZTIPf,%object; .size _ZTIPf,32; _ZTIPf: .skip 1
.data; .global _ZTIPh; .type _ZTIPh,%object; .size _ZTIPh,32; _ZTIPh: .skip 1
.data; .global _ZTIPi; .type _ZTIPi,%object; .size _ZTIPi,32; _ZTIPi: .skip 1
.data; .global _ZTIPj; .type _ZTIPj,%object; .size _ZTIPj,32; _ZTIPj: .skip 1
.data; .global _ZTIPl; .type _ZTIPl,%object; .size _ZTIPl,32; _ZTIPl: .skip 1
.data; .global _ZTIPm; .type _ZTIPm,%object; .size _ZTIPm,32; _ZTIPm: .skip 1
.data; .global _ZTIPs; .type _ZTIPs,%object; .size _ZTIPs,32; _ZTIPs: .skip 1
.data; .global _ZTIPt; .type _ZTIPt,%object; .size _ZTIPt,32; _ZTIPt: .skip 1
.data; .global _ZTIPx; .type _ZTIPx,%object; .size _ZTIPx,32; _ZTIPx: .skip 1
.data; .global _ZTIPy; .type _ZTIPy,%object; .size _ZTIPy,32; _ZTIPy: .skip 1
.data; .global _ZTISt10bad_typeid; .type _ZTISt10bad_typeid,%object; .size _ZTISt10bad_typeid,24; _ZTISt10bad_typeid: .skip 1
.data; .global _ZTISt13bad_exception; .type _ZTISt13bad_exception,%object; .size _ZTISt13bad_exception,24; _ZTISt13bad_exception: .skip 1
.data; .global _ZTISt16bad_array_length; .type _ZTISt16bad_array_length,%object; .size _ZTISt16bad_array_length,24; _ZTISt16bad_array_length: .skip 1
.data; .global _ZTISt20bad_array_new_length; .type _ZTISt20bad_array_new_length,%object; .size _ZTISt20bad_array_new_length,24; _ZTISt20bad_array_new_length: .skip 1
.data; .global _ZTISt8bad_cast; .type _ZTISt8bad_cast,%object; .size _ZTISt8bad_cast,24; _ZTISt8bad_cast: .skip 1
.data; .global _ZTISt9bad_alloc; .type _ZTISt9bad_alloc,%object; .size _ZTISt9bad_alloc,24; _ZTISt9bad_alloc: .skip 1
.data; .global _ZTISt9exception; .type _ZTISt9exception,%object; .size _ZTISt9exception,16; _ZTISt9exception: .skip 1
.data; .global _ZTISt9type_info; .type _ZTISt9type_info,%object; .size _ZTISt9type_info,16; _ZTISt9type_info: .skip 1
.data; .global _ZTIa; .type _ZTIa,%object; .size _ZTIa,32; _ZTIa: .skip 1
.data; .global _ZTIb; .type _ZTIb,%object; .size _ZTIb,32; _ZTIb: .skip 1
.data; .global _ZTIc; .type _ZTIc,%object; .size _ZTIc,32; _ZTIc: .skip 1
.data; .global _ZTId; .type _ZTId,%object; .size _ZTId,32; _ZTId: .skip 1
.data; .global _ZTIe; .type _ZTIe,%object; .size _ZTIe,32; _ZTIe: .skip 1
.data; .global _ZTIf; .type _ZTIf,%object; .size _ZTIf,32; _ZTIf: .skip 1
.data; .global _ZTIh; .type _ZTIh,%object; .size _ZTIh,32; _ZTIh: .skip 1
.data; .global _ZTIi; .type _ZTIi,%object; .size _ZTIi,32; _ZTIi: .skip 1
.data; .global _ZTIj; .type _ZTIj,%object; .size _ZTIj,32; _ZTIj: .skip 1
.data; .global _ZTIl; .type _ZTIl,%object; .size _ZTIl,32; _ZTIl: .skip 1
.data; .global _ZTIm; .type _ZTIm,%object; .size _ZTIm,32; _ZTIm: .skip 1
.data; .global _ZTIs; .type _ZTIs,%object; .size _ZTIs,32; _ZTIs: .skip 1
.data; .global _ZTIt; .type _ZTIt,%object; .size _ZTIt,32; _ZTIt: .skip 1
.data; .global _ZTIx; .type _ZTIx,%object; .size _ZTIx,32; _ZTIx: .skip 1
.data; .global _ZTIy; .type _ZTIy,%object; .size _ZTIy,32; _ZTIy: .skip 1
.section .rodata; .global _ZTSN10__cxxabiv115__forced_unwindE; .type _ZTSN10__cxxabiv115__forced_unwindE,%object; .size _ZTSN10__cxxabiv115__forced_unwindE,32; _ZTSN10__cxxabiv115__forced_unwindE:
.section .rodata; .global _ZTSN10__cxxabiv116__enum_type_infoE; .type _ZTSN10__cxxabiv116__enum_type_infoE,%object; .size _ZTSN10__cxxabiv116__enum_type_infoE,33; _ZTSN10__cxxabiv116__enum_type_infoE:
.section .rodata; .global _ZTSN10__cxxabiv117__class_type_infoE; .type _ZTSN10__cxxabiv117__class_type_infoE,%object; .size _ZTSN10__cxxabiv117__class_type_infoE,34; _ZTSN10__cxxabiv117__class_type_infoE:
.section .rodata; .global _ZTSN10__cxxabiv117__pbase_type_infoE; .type _ZTSN10__cxxabiv117__pbase_type_infoE,%object; .size _ZTSN10__cxxabiv117__pbase_type_infoE,34; _ZTSN10__cxxabiv117__pbase_type_infoE:
.section .rodata; .global _ZTSN10__cxxabiv119__foreign_exceptionE; .type _ZTSN10__cxxabiv119__foreign_exceptionE,%object; .size _ZTSN10__cxxabiv119__foreign_exceptionE,36; _ZTSN10__cxxabiv119__foreign_exceptionE:
.section .rodata; .global _ZTSN10__cxxabiv119__pointer_type_infoE; .type _ZTSN10__cxxabiv119__pointer_type_infoE,%object; .size _ZTSN10__cxxabiv119__pointer_type_infoE,36; _ZTSN10__cxxabiv119__pointer_type_infoE:
.section .rodata; .global _ZTSN10__cxxabiv120__function_type_infoE; .type _ZTSN10__cxxabiv120__function_type_infoE,%object; .size _ZTSN10__cxxabiv120__function_type_infoE,37; _ZTSN10__cxxabiv120__function_type_infoE:
.section .rodata; .global _ZTSN10__cxxabiv120__si_class_type_infoE; .type _ZTSN10__cxxabiv120__si_class_type_infoE,%object; .size _ZTSN10__cxxabiv120__si_class_type_infoE,37; _ZTSN10__cxxabiv120__si_class_type_infoE:
.section .rodata; .global _ZTSN10__cxxabiv121__vmi_class_type_infoE; .type _ZTSN10__cxxabiv121__vmi_class_type_infoE,%object; .size _ZTSN10__cxxabiv121__vmi_class_type_infoE,38; _ZTSN10__cxxabiv121__vmi_class_type_infoE:
.section .rodata; .global _ZTSN10__cxxabiv123__fundamental_type_infoE; .type _ZTSN10__cxxabiv123__fundamental_type_infoE,%object; .size _ZTSN10__cxxabiv123__fundamental_type_infoE,40; _ZTSN10__cxxabiv123__fundamental_type_infoE:
.section .rodata; .global _ZTSSt10bad_typeid; .type _ZTSSt10bad_typeid,%object; .size _ZTSSt10bad_typeid,15; _ZTSSt10bad_typeid:
.section .rodata; .global _ZTSSt13bad_exception; .type _ZTSSt13bad_exception,%object; .size _ZTSSt13bad_exception,18; _ZTSSt13bad_exception:
.section .rodata; .global _ZTSSt16bad_array_length; .type _ZTSSt16bad_array_length,%object; .size _ZTSSt16bad_array_length,21; _ZTSSt16bad_array_length:
.section .rodata; .global _ZTSSt20bad_array_new_length; .type _ZTSSt20bad_array_new_length,%object; .size _ZTSSt20bad_array_new_length,25; _ZTSSt20bad_array_new_length:
.section .rodata; .global _ZTSSt8bad_cast; .type _ZTSSt8bad_cast,%object; .size _ZTSSt8bad_cast,12; _ZTSSt8bad_cast:
.section .rodata; .global _ZTSSt9bad_alloc; .type _ZTSSt9bad_alloc,%object; .size _ZTSSt9bad_alloc,13; _ZTSSt9bad_alloc:
.section .rodata; .global _ZTSSt9exception; .type _ZTSSt9exception,%object; .size _ZTSSt9exception,13; _ZTSSt9exception:
.section .rodata; .global _ZTSSt9type_info; .type _ZTSSt9type_info,%object; .size _ZTSSt9type_info,13; _ZTSSt9type_info:
.data; .global _ZTVN10__cxxabiv115__forced_unwindE; .type _ZTVN10__cxxabiv115__forced_unwindE,%object; .size _ZTVN10__cxxabiv115__forced_unwindE,40; _ZTVN10__cxxabiv115__forced_unwindE: .skip 1
.data; .global _ZTVN10__cxxabiv116__enum_type_infoE; .type _ZTVN10__cxxabiv116__enum_type_infoE,%object; .size _ZTVN10__cxxabiv116__enum_type_infoE,64; _ZTVN10__cxxabiv116__enum_type_infoE: .skip 1
.data; .global _ZTVN10__cxxabiv117__class_type_infoE; .type _ZTVN10__cxxabiv117__class_type_infoE,%object; .size _ZTVN10__cxxabiv117__class_type_infoE,88; _ZTVN10__cxxabiv117__class_type_infoE: .skip 1
.data; .global _ZTVN10__cxxabiv117__pbase_type_infoE; .type _ZTVN10__cxxabiv117__pbase_type_infoE,%object; .size _ZTVN10__cxxabiv117__pbase_type_infoE,72; _ZTVN10__cxxabiv117__pbase_type_infoE: .skip 1
.data; .global _ZTVN10__cxxabiv119__foreign_exceptionE; .type _ZTVN10__cxxabiv119__foreign_exceptionE,%object; .size _ZTVN10__cxxabiv119__foreign_exceptionE,40; _ZTVN10__cxxabiv119__foreign_exceptionE: .skip 1
.data; .global _ZTVN10__cxxabiv119__pointer_type_infoE; .type _ZTVN10__cxxabiv119__pointer_type_infoE,%object; .size _ZTVN10__cxxabiv119__pointer_type_infoE,72; _ZTVN10__cxxabiv119__pointer_type_infoE: .skip 1
.data; .global _ZTVN10__cxxabiv120__function_type_infoE; .type _ZTVN10__cxxabiv120__function_type_infoE,%object; .size _ZTVN10__cxxabiv120__function_type_infoE,64; _ZTVN10__cxxabiv120__function_type_infoE: .skip 1
.data; .global _ZTVN10__cxxabiv120__si_class_type_infoE; .type _ZTVN10__cxxabiv120__si_class_type_infoE,%object; .size _ZTVN10__cxxabiv120__si_class_type_infoE,88; _ZTVN10__cxxabiv120__si_class_type_infoE: .skip 1
.data; .global _ZTVN10__cxxabiv121__vmi_class_type_infoE; .type _ZTVN10__cxxabiv121__vmi_class_type_infoE,%object; .size _ZTVN10__cxxabiv121__vmi_class_type_infoE,88; _ZTVN10__cxxabiv121__vmi_class_type_infoE: .skip 1
.data; .global _ZTVN10__cxxabiv123__fundamental_type_infoE; .type _ZTVN10__cxxabiv123__fundamental_type_infoE,%object; .size _ZTVN10__cxxabiv123__fundamental_type_infoE,64; _ZTVN10__cxxabiv123__fundamental_type_infoE: .skip 1
.data; .global _ZTVSt10bad_typeid; .type _ZTVSt10bad_typeid,%object; .size _ZTVSt10bad_typeid,40; _ZTVSt10bad_typeid: .skip 1
.data; .global _ZTVSt13bad_exception; .type _ZTVSt13bad_exception,%object; .size _ZTVSt13bad_exception,40; _ZTVSt13bad_exception: .skip 1
.data; .global _ZTVSt16bad_array_length; .type _ZTVSt16bad_array_length,%object; .size _ZTVSt16bad_array_length,40; _ZTVSt16bad_array_length: .skip 1
.data; .global _ZTVSt20bad_array_new_length; .type _ZTVSt20bad_array_new_length,%object; .size _ZTVSt20bad_array_new_length,40; _ZTVSt20bad_array_new_length: .skip 1
.data; .global _ZTVSt8bad_cast; .type _ZTVSt8bad_cast,%object; .size _ZTVSt8bad_cast,40; _ZTVSt8bad_cast: .skip 1
.data; .global _ZTVSt9bad_alloc; .type _ZTVSt9bad_alloc,%object; .size _ZTVSt9bad_alloc,40; _ZTVSt9bad_alloc: .skip 1
.data; .global _ZTVSt9exception; .type _ZTVSt9exception,%object; .size _ZTVSt9exception,40; _ZTVSt9exception: .skip 1
.data; .global _ZTVSt9type_info; .type _ZTVSt9type_info,%object; .size _ZTVSt9type_info,64; _ZTVSt9type_info: .skip 1
.text; .weak _ZdlPv; .type _ZdlPv,%function; _ZdlPv:
.text; .weak _ZdlPvm; .type _ZdlPvm,%function; _ZdlPvm:
.text; .global __aeabi_atexit; .type __aeabi_atexit,%function; __aeabi_atexit:
.text; .global __aeabi_unwind_cpp_pr0; .type __aeabi_unwind_cpp_pr0,%function; __aeabi_unwind_cpp_pr0:
.text; .global __aeabi_unwind_cpp_pr1; .type __aeabi_unwind_cpp_pr1,%function; __aeabi_unwind_cpp_pr1:
.text; .global __cxa_allocate_dependent_exception; .type __cxa_allocate_dependent_exception,%function; __cxa_allocate_dependent_exception:
.text; .global __cxa_allocate_exception; .type __cxa_allocate_exception,%function; __cxa_allocate_exception:
.text; .global __cxa_atexit; .type __cxa_atexit,%function; __cxa_atexit:
.text; .global __cxa_bad_cast; .type __cxa_bad_cast,%function; __cxa_bad_cast:
.text; .global __cxa_bad_typeid; .type __cxa_bad_typeid,%function; __cxa_bad_typeid:
.text; .global __cxa_begin_catch; .type __cxa_begin_catch,%function; __cxa_begin_catch:
.text; .global __cxa_begin_cleanup; .type __cxa_begin_cleanup,%function; __cxa_begin_cleanup:
.text; .global __cxa_call_terminate; .type __cxa_call_terminate,%function; __cxa_call_terminate:
.text; .global __cxa_call_unexpected; .type __cxa_call_unexpected,%function; __cxa_call_unexpected:
.text; .global __cxa_current_exception_type; .type __cxa_current_exception_type,%function; __cxa_current_exception_type:
.text; .global __cxa_demangle; .type __cxa_demangle,%function; __cxa_demangle:
.text; .global __cxa_end_catch; .type __cxa_end_catch,%function; __cxa_end_catch:
.text; .global __cxa_end_cleanup; .type __cxa_end_cleanup,%function; __cxa_end_cleanup:
.text; .global __cxa_finalize; .type __cxa_finalize,%function; __cxa_finalize:
.text; .global __cxa_free_dependent_exception; .type __cxa_free_dependent_exception,%function; __cxa_free_dependent_exception:
.text; .global __cxa_free_exception; .type __cxa_free_exception,%function; __cxa_free_exception:
.text; .global __cxa_get_exception_ptr; .type __cxa_get_exception_ptr,%function; __cxa_get_exception_ptr:
.text; .global __cxa_get_globals; .type __cxa_get_globals,%function; __cxa_get_globals:
.text; .global __cxa_get_globals_fast; .type __cxa_get_globals_fast,%function; __cxa_get_globals_fast:
.text; .global __cxa_guard_abort; .type __cxa_guard_abort,%function; __cxa_guard_abort:
.text; .global __cxa_guard_acquire; .type __cxa_guard_acquire,%function; __cxa_guard_acquire:
.text; .global __cxa_guard_release; .type __cxa_guard_release,%function; __cxa_guard_release:
.text; .global __cxa_pure_virtual; .type __cxa_pure_virtual,%function; __cxa_pure_virtual:
.text; .global __cxa_rethrow; .type __cxa_rethrow,%function; __cxa_rethrow:
.text; .global __cxa_throw; .type __cxa_throw,%function; __cxa_throw:
.text; .global __cxa_throw_bad_array_length; .type __cxa_throw_bad_array_length,%function; __cxa_throw_bad_array_length:
.text; .global __cxa_throw_bad_array_new_length; .type __cxa_throw_bad_array_new_length,%function; __cxa_throw_bad_array_new_length:
.text; .global __cxa_type_match; .type __cxa_type_match,%function; __cxa_type_match:
.text; .global __dynamic_cast; .type __dynamic_cast,%function; __dynamic_cast:
.text; .global __emutls_get_address; .type __emutls_get_address,%function; __emutls_get_address:
.text; .global __gxx_personality_v0; .type __gxx_personality_v0,%function; __gxx_personality_v0:
.text; .weak __stack_chk_fail; .type __stack_chk_fail,%function; __stack_chk_fail:
.bss; .global __stack_chk_guard; .type __stack_chk_guard,%object; .size __stack_chk_guard,8; __stack_chk_guard:
.text; .global dl_iterate_phdr; .type dl_iterate_phdr,%function; dl_iterate_phdr:
.text; .global dl_unwind_find_exidx; .type dl_unwind_find_exidx,%function; dl_unwind_find_exidx:
